(lp0
(dp1
S''
p2
I542
sS'superman'
p3
I2896
sS'pardon'
p4
I1091
sS'personally'
p5
I1437
sS'neo'
p6
I4076
sS'yellow'
p7
I1990
sS'four'
p8
I313
sS'woods'
p9
I2243
sS'sleep'
p10
I412
sS'invitation'
p11
I3675
sS'hanging'
p12
I1380
sS'captain'
p13
I501
sS'hate'
p14
I445
sS'consider'
p15
I1277
sS'whose'
p16
I1083
sS'buddy'
p17
I695
sS'attracted'
p18
I3101
sS'paris'
p19
I1200
sS'investigation'
p20
I2016
sS'under'
p21
I427
sS'lord'
p22
I809
sS'sorry'
p23
I146
sS'pride'
p24
I2904
sS'worth'
p25
I671
sS'lack'
p26
I3172
sS'risk'
p27
I1322
sS'rise'
p28
I3261
sS'pierce'
p29
I3791
sS'handling'
p30
I3711
sS'every'
p31
I251
sS'jack'
p32
I429
sS'tank'
p33
I3788
sS'bringing'
p34
I1670
sS'tickets'
p35
I2033
sS"we'll"
p36
I218
sS'prize'
p37
I3353
sS'rex'
p38
I3472
sS'wednesday'
p39
I2921
sS'sulu'
p40
I3357
sS'frozen'
p41
I2758
sS'nigger'
p42
I2491
sS'burke'
p43
I3883
sS'murders'
p44
I2619
sS'warren'
p45
I3519
sS'heading'
p46
I1979
sS'clothes'
p47
I779
sS'enjoy'
p48
I1059
sS'force'
p49
I1023
sS'tired'
p50
I638
sS'awake'
p51
I2023
sS'miller'
p52
I2545
sS'dough'
p53
I3599
sS'harold'
p54
I1415
sS'horn'
p55
I4020
sS'nail'
p56
I2544
sS'second'
p57
I482
sS'street'
p58
I591
sS'helluva'
p59
I3019
sS'buzz'
p60
I1440
sS'mason'
p61
I2809
sS'machines'
p62
I2776
sS'theory'
p63
I1513
sS'even'
p64
I155
sS'admire'
p65
I2521
sS'hide'
p66
I1099
sS'christ'
p67
I570
sS'wreck'
p68
I3564
sS'saved'
p69
I1034
sS'ned'
p70
I3197
sS'cooking'
p71
I3980
sS'fingers'
p72
I2154
sS'poison'
p73
I2374
sS'kent'
p74
I3710
sS'lights'
p75
I1638
sS'hostile'
p76
I3651
sS'en'
p77
I3836
sS'above'
p78
I1772
sS'new'
p79
I210
sS'net'
p80
I3553
sS'emily'
p81
I3958
sS'ever'
p82
I163
sS'admiral'
p83
I1342
sS'told'
p84
I160
sS'agreement'
p85
I3437
sS'kicked'
p86
I2401
sS'hero'
p87
I1549
sS'reporter'
p88
I2469
sS'never'
p89
I109
sS'here'
p90
I50
sS'hundreds'
p91
I2791
sS'met'
p92
I472
sS'protection'
p93
I2623
sS'china'
p94
I2056
sS'fleet'
p95
I3338
sS'hers'
p96
I3253
sS'herr'
p97
I2912
sS"aren't"
p98
I363
sS'films'
p99
I3966
sS'dry'
p100
I1572
sS'luther'
p101
I3614
sS'kids'
p102
I439
sS'daughter'
p103
I654
sS'tapes'
p104
I1810
sS'study'
p105
I1313
sS'changed'
p106
I797
sS"what'll"
p107
I2375
sS'reports'
p108
I2885
sS'robin'
p109
I3967
sS'credit'
p110
I1326
sS"i'd"
p111
I156
sS'goddamnit'
p112
I2629
sS'smoke'
p113
I1184
sS'permit'
p114
I3831
sS'complicated'
p115
I1895
sS"i'm"
p116
I24
sS"someone's"
p117
I1988
sS'changes'
p118
I1974
sS'lois'
p119
I2580
sS'golden'
p120
I3346
sS'fantastic'
p121
I2058
sS'carl'
p122
I1409
sS'campaign'
p123
I3615
sS"feelin'"
p124
I3225
sS'julie'
p125
I3041
sS'explained'
p126
I3590
sS'seven'
p127
I573
sS"christ's"
p128
I2381
sS'feelings'
p129
I1246
sS'brought'
p130
I612
sS'patience'
p131
I3030
sS'neil'
p132
I3468
sS'ninety'
p133
I2415
sS'moral'
p134
I3050
sS'guests'
p135
I2267
sS'counts'
p136
I3842
sS'total'
p137
I1685
sS'unit'
p138
I2450
sS'sarah'
p139
I2113
sS'criminals'
p140
I3761
sS'dna'
p141
I3377
sS'spoke'
p142
I1466
sS'would'
p143
I96
sS'army'
p144
I813
sS'hospital'
p145
I666
sS'mexico'
p146
I1597
sS'arms'
p147
I1680
sS'insult'
p148
I3528
sS'asses'
p149
I3577
sS'edward'
p150
I2239
sS'call'
p151
I158
sS'calm'
p152
I981
sS'passport'
p153
I2940
sS'recommend'
p154
I3394
sS'strike'
p155
I1797
sS'survive'
p156
I1874
sS'sexy'
p157
I2554
sS'type'
p158
I1056
sS'tell'
p159
I81
sS'breathe'
p160
I2150
sS'holy'
p161
I1116
sS'relax'
p162
I902
sS'successful'
p163
I2872
sS'brings'
p164
I2100
sS'naive'
p165
I3977
sS'phony'
p166
I3222
sS'warp'
p167
I3247
sS'hurt'
p168
I409
sS'warn'
p169
I2446
sS'phone'
p170
I443
sS'berlin'
p171
I2992
sS'warm'
p172
I1487
sS'surgeon'
p173
I3097
sS'former'
p174
I3090
sS'excellent'
p175
I1601
sS'hole'
p176
I1273
sS'hold'
p177
I398
sS"must've"
p178
I1686
sS'must'
p179
I185
sS'shoot'
p180
I562
sS'ripley'
p181
I3252
sS'ma'
p182
I993
sS'room'
p183
I289
sS'divorced'
p184
I2160
sS'player'
p185
I1870
sS'mm'
p186
I1629
sS'work'
p187
I166
sS'worm'
p188
I3254
sS'roof'
p189
I2013
sS'mu'
p190
I4005
sS'movies'
p191
I1032
sS'locker'
p192
I3088
sS'ms'
p193
I1946
sS'mr'
p194
I138
sS'my'
p195
I30
sS'example'
p196
I2198
sS'salesman'
p197
I3329
sS'estate'
p198
I3124
sS'give'
p199
I145
sS'laughs'
p200
I3922
sS'honey'
p201
I490
sS'knees'
p202
I2339
sS'want'
p203
I55
sS'\x96'
p204
I1687
sS'appearance'
p205
I3259
sS'keep'
p206
I203
sS'guarantee'
p207
I2454
sS'end'
p208
I460
sS'thing'
p209
I133
sS'hon'
p210
I2510
sS'travel'
p211
I1590
sS'song'
p212
I1239
sS'nuts'
p213
I1144
sS'damage'
p214
I1796
sS'machine'
p215
I1029
sS'far'
p216
I430
sS'hot'
p217
I599
sS'trusted'
p218
I2528
sS'answer'
p219
I509
sS'gate'
p220
I2830
sS'ordinary'
p221
I2481
sS'beach'
p222
I1209
sS'gamble'
p223
I3757
sS'aboard'
p224
I2385
sS'badly'
p225
I2396
sS'poker'
p226
I3670
sS'fever'
p227
I3758
sS'elizabeth'
p228
I2516
sS'beauty'
p229
I1630
sS'mess'
p230
I1159
sS'after'
p231
I193
sS'loyalty'
p232
I3151
sS'lab'
p233
I1781
sS'wrong'
p234
I233
sS'jumping'
p235
I3383
sS'lay'
p236
I1294
sS'guilt'
p237
I4053
sS'president'
p238
I627
sS'law'
p239
I702
sS'lap'
p240
I3918
sS'loretta'
p241
I3618
sS'lampert'
p242
I3014
sS"they're"
p243
I157
sS'bucks'
p244
I845
sS'danny'
p245
I1822
sS'attempt'
p246
I2936
sS'splendid'
p247
I3936
sS'third'
p248
I931
sS'dealer'
p249
I3388
sS'appreciate'
p250
I934
sS'headquarters'
p251
I3964
sS'complaining'
p252
I3684
sS'cigarettes'
p253
I1900
sS'sons'
p254
I3926
sS'green'
p255
I1155
sS'jungle'
p256
I3230
sS'goodbye'
p257
I857
sS'keeps'
p258
I1204
sS'button'
p259
I2963
sS'fan'
p260
I1873
sS'operate'
p261
I3887
sS'order'
p262
I669
sS'wind'
p263
I1307
sS'wine'
p264
I1491
sS'operations'
p265
I3616
sS'dignan'
p266
I2919
sS'office'
p267
I524
sS'deck'
p268
I2658
sS'wound'
p269
I2290
sS'over'
p270
I132
sS'pound'
p271
I4035
sS'satisfied'
p272
I2617
sS'misery'
p273
I3029
sS'london'
p274
I1636
sS'\x97'
p275
I1281
sS'oswald'
p276
I2718
sS'fellas'
p277
I2853
sS'introduced'
p278
I3733
sS'hook'
p279
I2015
sS'mayor'
p280
I2438
sS'before'
p281
I161
sS'auggie'
p282
I3716
sS'dame'
p283
I4092
sS'fit'
p284
I1190
sS'somewhere'
p285
I621
sS'screaming'
p286
I2301
sS'fix'
p287
I997
sS','
p288
I4
sS'writing'
p289
I1154
sS'better'
p290
I172
sS'production'
p291
I4052
sS'weeks'
p292
I616
sS'easier'
p293
I1724
sS'belly'
p294
I3799
sS'theo'
p295
I2026
sS'then'
p296
I98
sS'them'
p297
I102
sS'unfortunate'
p298
I3521
sS'combination'
p299
I3678
sS'weakness'
p300
I3815
sS'thee'
p301
I2644
sS'safe'
p302
I600
sS'school'
p303
I344
sS'trail'
p304
I3040
sS'break'
p305
I519
sS'band'
p306
I1607
sS'bang'
p307
I3702
sS'therapy'
p308
I2719
sS'effects'
p309
I3578
sS'they'
p310
I51
sS'plates'
p311
I3834
sS'one'
p312
I62
sS'silver'
p313
I2329
sS'bank'
p314
I799
sS'bread'
p315
I2579
sS'alex'
p316
I1269
sS'meat'
p317
I1981
sS'oxygen'
p318
I2771
sS'arrested'
p319
I2066
sS'l'
p320
I1145
sS'detroit'
p321
I3125
sS'rocks'
p322
I3105
sS'victory'
p323
I3793
sS'reasonable'
p324
I2281
sS'each'
p325
I471
sS'went'
p326
I282
sS'dennis'
p327
I3181
sS'side'
p328
I502
sS'bone'
p329
I2887
sS'mean'
p330
I104
sS'hank'
p331
I3440
sS'financial'
p332
I2841
sS'series'
p333
I2390
sS'diane'
p334
I2857
sS'stronger'
p335
I2854
sS'thelma'
p336
I2605
sS'tip'
p337
I1834
sS'taught'
p338
I1413
sS"we'd"
p339
I683
sS'forgot'
p340
I947
sS'navy'
p341
I2978
sS'temporary'
p342
I3687
sS'ghosts'
p343
I2654
sS'truman'
p344
I3127
sS'ward'
p345
I3861
sS'sounds'
p346
I563
sS'vada'
p347
I2507
sS'precisely'
p348
I3008
sS'network'
p349
I3664
sS'driving'
p350
I1008
sS'god'
p351
I200
sS'motel'
p352
I2236
sS'dime'
p353
I2788
sS'washed'
p354
I3130
sS'forty'
p355
I806
sS'tomorrow'
p356
I316
sS'strangers'
p357
I3064
sS're'
p358
I1375
sS'laid'
p359
I1602
sS'daniel'
p360
I1793
sS'medicine'
p361
I2371
sS'got'
p362
I56
sS'hooker'
p363
I3954
sS'millions'
p364
I2369
sS'forth'
p365
I4071
sS'turning'
p366
I1833
sS"d'you"
p367
I1767
sS"doesn't"
p368
I194
sS'gardiner'
p369
I2533
sS'threatened'
p370
I3241
sS'little'
p371
I120
sS'free'
p372
I614
sS'fred'
p373
I2170
sS'necessarily'
p374
I3805
sS'rain'
p375
I1760
sS"people's"
p376
I2387
sS'sheet'
p377
I4000
sS'wanted'
p378
I240
sS'dammit'
p379
I2641
sS'ate'
p380
I1674
sS'convent'
p381
I3557
sS'created'
p382
I1935
sS'starts'
p383
I1676
sS'messages'
p384
I3309
sS'days'
p385
I345
sS'7'
p386
I1962
sS'lousy'
p387
I2377
sS'heck'
p388
I3182
sS'whatta'
p389
I2234
sS'parked'
p390
I3904
sS'marcus'
p391
I2744
sS'arrived'
p392
I2130
sS'scheme'
p393
I4024
sS'onto'
p394
I1426
sS'bite'
p395
I1569
sS'fuckin'
p396
I3689
sS'cleaning'
p397
I2591
sS'already'
p398
I325
sS'don\x92t'
p399
I1361
sS'psychic'
p400
I3058
sS'grade'
p401
I2142
sS'supper'
p402
I3115
sS'rank'
p403
I3803
sS'hearing'
p404
I1500
sS'wash'
p405
I1626
sS'grady'
p406
I3081
sS'another'
p407
I261
sS'thick'
p408
I3647
sS'plastic'
p409
I3374
sS'awfully'
p410
I3158
sS'magnificent'
p411
I3976
sS'toy'
p412
I3109
sS'fence'
p413
I3480
sS'service'
p414
I930
sS'top'
p415
I713
sS'engagement'
p416
I4067
sS'girls'
p417
I618
sS'twisted'
p418
I3484
sS'elevator'
p419
I2602
sS'needed'
p420
I907
sS'master'
p421
I1166
sS'too'
p422
I113
sS'tom'
p423
I726
sS'hollywood'
p424
I1806
sS'john'
p425
I411
sS'eats'
p426
I3718
sS'dogs'
p427
I1518
sS'listen'
p428
I234
sS'murder'
p429
I814
sS'serve'
p430
I1723
sS'took'
p431
I349
sS'direct'
p432
I2038
sS'western'
p433
I3156
sS'ellie'
p434
I2032
sS'character'
p435
I1665
sS'begins'
p436
I3538
sS'distance'
p437
I2274
sS'target'
p438
I2190
sS'showed'
p439
I1328
sS'saavik'
p440
I3464
sS'werewolf'
p441
I3975
sS'tree'
p442
I1408
sS'likely'
p443
I1987
sS'final'
p444
I1984
sS'shower'
p445
I1671
sS'matter'
p446
I304
sS'fabulous'
p447
I3331
sS'silly'
p448
I1024
sS'speaking'
p449
I1471
sS'iron'
p450
I3919
sS'feeling'
p451
I593
sS'powers'
p452
I2313
sS'bridge'
p453
I1244
sS'fashion'
p454
I3598
sS'sees'
p455
I1663
sS'palace'
p456
I2895
sS'ran'
p457
I979
sS'boston'
p458
I2511
sS'modern'
p459
I3248
sS'mind'
p460
I248
sS'mine'
p461
I462
sS'anybody'
p462
I455
sS'talking'
p463
I216
sS'rat'
p464
I2171
sS'manner'
p465
I3546
sS'lula'
p466
I3015
sS'seen'
p467
I288
sS'seem'
p468
I559
sS'seek'
p469
I2937
sS'tells'
p470
I1249
sS'ray'
p471
I808
sS'dickie'
p472
I2674
sS'forced'
p473
I2513
sS'strength'
p474
I1731
sS'responsible'
p475
I1428
sS'-'
p476
I10
sS'snow'
p477
I2356
sS'investment'
p478
I3378
sS'chest'
p479
I2063
sS'client'
p480
I1599
sS'doors'
p481
I1913
sS'season'
p482
I2684
sS'creatures'
p483
I3270
sS'unfair'
p484
I3873
sS'blue'
p485
I850
sS'buck'
p486
I2496
sS'nobody'
p487
I408
sS'susie'
p488
I2759
sS'philadelphia'
p489
I3765
sS'though'
p490
I514
sS'bruce'
p491
I1267
sS'object'
p492
I2357
sS'sue'
p493
I1692
sS"talkin'"
p494
I1045
sS'regular'
p495
I1695
sS'mouth'
p496
I716
sS'plenty'
p497
I1084
sS'organization'
p498
I3170
sS"this'll"
p499
I3995
sS'cap'
p500
I3956
sS'jean'
p501
I1886
sS'grave'
p502
I2030
sS'sub'
p503
I3234
sS"girl's"
p504
I2995
sS'singer'
p505
I3226
sS'don'
p506
I1635
sS'doc'
p507
I1182
sS'medical'
p508
I1365
sS'camp'
p509
I1529
sS'm'
p510
I898
sS'dog'
p511
I626
sS'doe'
p512
I2882
sS'definitely'
p513
I1199
sS'aunt'
p514
I1691
sS'enterprise'
p515
I1867
sS'scotch'
p516
I3335
sS'scream'
p517
I2964
sS'came'
p518
I262
sS'agnes'
p519
I2628
sS'saying'
p520
I322
sS'bomb'
p521
I1100
sS'lewis'
p522
I3929
sS'queen'
p523
I1540
sS'meal'
p524
I2767
sS'ending'
p525
I3770
sS'pops'
p526
I3455
sS'radio'
p527
I929
sS'liberty'
p528
I3736
sS'earth'
p529
I800
sS'bail'
p530
I3122
sS'enjoyed'
p531
I3208
sS'shelly'
p532
I2800
sS'orleans'
p533
I3819
sS'busy'
p534
I784
sS'louise'
p535
I2337
sS'claude'
p536
I2938
sS'explain'
p537
I674
sS'bust'
p538
I2040
sS'sugar'
p539
I1525
sS'rico'
p540
I4046
sS'rick'
p541
I1823
sS'rich'
p542
I822
sS'photo'
p543
I3515
sS'folks'
p544
I1148
sS'personality'
p545
I2906
sS'wearing'
p546
I964
sS'do'
p547
I23
sS'wide'
p548
I2945
sS'de'
p549
I1017
sS'watch'
p550
I418
sS'da'
p551
I2045
sS'pocket'
p552
I1851
sS'12'
p553
I3250
sS'anxious'
p554
I3205
sS'wedding'
p555
I1075
sS'report'
p556
I754
sS'15'
p557
I3107
sS'nasty'
p558
I2178
sS'quarters'
p559
I3469
sS'dr'
p560
I422
sS'learned'
p561
I1314
sS'sandy'
p562
I3094
sS'earl'
p563
I1924
sS'hall'
p564
I1378
sS'runs'
p565
I1323
sS'catholic'
p566
I3915
sS'bar'
p567
I1041
sS'noon'
p568
I3571
sS'convinced'
p569
I3022
sS'guns'
p570
I1152
sS'twice'
p571
I1112
sS'bad'
p572
I214
sS'shots'
p573
I2487
sS'release'
p574
I2495
sS'steak'
p575
I3573
sS'steal'
p576
I1206
sS'secretary'
p577
I1646
sS'headed'
p578
I2140
sS'blew'
p579
I1627
sS'victim'
p580
I2419
sS'fair'
p581
I818
sS'habit'
p582
I3291
sS'generally'
p583
I3837
sS'nut'
p584
I2910
sS'nun'
p585
I3708
sS'checks'
p586
I2903
sS'goodnight'
p587
I1453
sS'decided'
p588
I967
sS'result'
p589
I3659
sS'cattle'
p590
I4021
sS'fail'
p591
I2710
sS'miserable'
p592
I2716
sS'bee'
p593
I3903
sS'best'
p594
I305
sS'subject'
p595
I1480
sS'pete'
p596
I1664
sS'said'
p597
I124
sS"there'd"
p598
I4002
sS'mitch'
p599
I2228
sS'lots'
p600
I963
sS'away'
p601
I199
sS'sail'
p602
I3530
sS'gentleman'
p603
I1754
sS'grandmother'
p604
I3461
sS"there's"
p605
I129
sS'finger'
p606
I2025
sS"name's"
p607
I1215
sS'approach'
p608
I3162
sS'shields'
p609
I3023
sS'privilege'
p610
I4012
sS'warrior'
p611
I3444
sS'we'
p612
I32
sS'men'
p613
I326
sS'terms'
p614
I2088
sS'wears'
p615
I3888
sS'nature'
p616
I1350
sS'weak'
p617
I2205
sS'however'
p618
I1908
sS'religious'
p619
I3537
sS'boss'
p620
I764
sS'nightmares'
p621
I3131
sS'cards'
p622
I1592
sS'harvard'
p623
I3051
sS'wear'
p624
I792
sS'news'
p625
I586
sS'picking'
p626
I1813
sS'intelligent'
p627
I3228
sS'kitchen'
p628
I1620
sS'pity'
p629
I2395
sS'cop'
p630
I753
sS'protect'
p631
I1054
sS'accident'
p632
I706
sS'psychiatrist'
p633
I2739
sS'reported'
p634
I3864
sS'fault'
p635
I751
sS'ill'
p636
I2077
sS'against'
p637
I526
sS'russia'
p638
I2752
sS"today's"
p639
I4036
sS'games'
p640
I1300
sS'planned'
p641
I1980
sS'brad'
p642
I1750
sS'studio'
p643
I2571
sS'wha'
p644
I3589
sS'buried'
p645
I1804
sS'torture'
p646
I3012
sS'asked'
p647
I425
sS'con'
p648
I2349
sS'suggest'
p649
I2008
sS'tough'
p650
I836
sS'legs'
p651
I1533
sS'cuz'
p652
I3780
sS'active'
p653
I3942
sS'karen'
p654
I2664
sS'written'
p655
I1621
sS'starling'
p656
I2870
sS'path'
p657
I4004
sS'tony'
p658
I2036
sS'loaded'
p659
I2258
sS'blonde'
p660
I2248
sS'trust'
p661
I468
sS'hitler'
p662
I3913
sS'speak'
p663
I556
sS'conference'
p664
I2526
sS'bathroom'
p665
I1223
sS'angel'
p666
I2164
sS'puts'
p667
I2864
sS'basis'
p668
I3539
sS'union'
p669
I2520
sS'patch'
p670
I3880
sS'three'
p671
I219
sS'been'
p672
I88
sS'.'
p673
I3
sS'bothers'
p674
I3621
sS'commission'
p675
I2283
sS'beer'
p676
I1066
sS'much'
p677
I139
sS'interest'
p678
I1087
sS'basic'
p679
I2703
sS'expected'
p680
I1628
sS'fry'
p681
I3820
sS'lovely'
p682
I1214
sS'pro'
p683
I2769
sS'threw'
p684
I1639
sS'life'
p685
I170
sS'families'
p686
I2270
sS'easy'
p687
I420
sS'spit'
p688
I3173
sS'attacked'
p689
I2542
sS'drugs'
p690
I1189
sS'worker'
p691
I3242
sS'dave'
p692
I1464
sS'lift'
p693
I2087
sS'child'
p694
I633
sS'catch'
p695
I689
sS'bunny'
p696
I3759
sS'worked'
p697
I660
sS'voices'
p698
I3486
sS'chill'
p699
I3506
sS'has'
p700
I140
sS'that\x92s'
p701
I2753
sS'packing'
p702
I3781
sS'tastes'
p703
I3303
sS'air'
p704
I673
sS'aim'
p705
I3360
sS'ugly'
p706
I1489
sS'near'
p707
I812
sS'suppose'
p708
I479
sS'hates'
p709
I1933
sS'leaves'
p710
I1747
sS'stopping'
p711
I3365
sS'aid'
p712
I3797
sS'[beat]'
p713
I2078
sS'voice'
p714
I972
sS'k'
p715
I1400
sS'procedure'
p716
I3042
sS'mistake'
p717
I785
sS'veronica'
p718
I2667
sS'stop'
p719
I242
sS'existence'
p720
I3313
sS'played'
p721
I1292
sS'is'
p722
I20
sS'dumped'
p723
I3467
sS'it'
p724
I12
sS'expenses'
p725
I3656
sS'shame'
p726
I1817
sS'violent'
p727
I3344
sS'eighteen'
p728
I1582
sS'in'
p729
I18
sS'march'
p730
I3595
sS'seattle'
p731
I3833
sS'boom'
p732
I3424
sS'disappear'
p733
I2094
sS'if'
p734
I47
sS'grown'
p735
I2043
sS'confirmed'
p736
I3944
sS'alien'
p737
I3463
sS'prior'
p738
I3674
sS'things'
p739
I174
sS'make'
p740
I119
sS"everybody's"
p741
I1727
sS'jerry'
p742
I1192
sS'beside'
p743
I3352
sS'complex'
p744
I4006
sS'split'
p745
I1309
sS'babies'
p746
I2226
sS'success'
p747
I2730
sS'several'
p748
I1776
sS'showing'
p749
I1884
sS"'round"
p750
I4043
sS'entitled'
p751
I3652
sS'wheel'
p752
I2406
sS'i>'
p753
I1078
sS'swell'
p754
I1871
sS'social'
p755
I1940
sS'hang'
p756
I734
sS'evil'
p757
I999
sS'hand'
p758
I477
sS'military'
p759
I2000
sS'jealous'
p760
I1634
sS'lila'
p761
I4088
sS'opportunity'
p762
I1777
sS"he'll"
p763
I463
sS'thoughts'
p764
I1973
sS'kid'
p765
I369
sS'butter'
p766
I3161
sS'kept'
p767
I807
sS'thy'
p768
I2127
sS"mother's"
p769
I1238
sS'performance'
p770
I2708
sS'charlie'
p771
I767
sS'suffering'
p772
I3007
sS'ocean'
p773
I1978
sS'contact'
p774
I1263
sS'greatest'
p775
I1382
sS'mother'
p776
I279
sS'floating'
p777
I3973
sS'hearts'
p778
I3171
sS'the'
p779
I8
sS'corporate'
p780
I3496
sS'yours'
p781
I465
sS'left'
p782
I266
sS'yeh'
p783
I3767
sS"she'll"
p784
I766
sS'impression'
p785
I2581
sS'background'
p786
I3371
sS'just'
p787
I41
sS'sentence'
p788
I3256
sS'gods'
p789
I3209
sS'prints'
p790
I3431
sS'aside'
p791
I2294
sS'assigned'
p792
I3501
sS'identify'
p793
I3690
sS'thanks'
p794
I269
sS'human'
p795
I682
sS'facts'
p796
I2149
sS'yep'
p797
I1490
sS'yes'
p798
I73
sS'yet'
p799
I318
sS'secure'
p800
I3306
sS'hah'
p801
I4048
sS'terrific'
p802
I1506
sS'burns'
p803
I2869
sS'hal'
p804
I2922
sS'hills'
p805
I2955
sS'mix'
p806
I3447
sS'cherry'
p807
I3826
sS'ease'
p808
I3111
sS'had'
p809
I110
sS"ma'am"
p810
I888
sS'n'
p811
I1510
sS'prisoner'
p812
I3092
sS'board'
p813
I1067
sS'innocent'
p814
I1229
sS'prison'
p815
I1027
sS'johnnie'
p816
I2949
sS'save'
p817
I624
sS'hat'
p818
I1681
sS'gave'
p819
I428
sS'shoulder'
p820
I3106
sS'maya'
p821
I3814
sS'vanessa'
p822
I3923
sS'breaks'
p823
I3059
sS'joanna'
p824
I4086
sS'possible'
p825
I639
sS'possibly'
p826
I1353
sS'boxes'
p827
I4022
sS'bastards'
p828
I2717
sS'julia'
p829
I3364
sS'birth'
p830
I2410
sS'linda'
p831
I2049
sS'judge'
p832
I1167
sS'shadow'
p833
I3425
sS'highly'
p834
I2607
sS'dreams'
p835
I1055
sS'apart'
p836
I1379
sS'desire'
p837
I2321
sS'county'
p838
I1911
sS'gift'
p839
I1341
sS'bobby'
p840
I1216
sS'hunt'
p841
I1657
sS'alice'
p842
I2244
sS'soap'
p843
I3190
sS'specific'
p844
I3199
sS'remind'
p845
I1659
sS'steps'
p846
I3507
sS'officer'
p847
I895
sS'night'
p848
I169
sS'hung'
p849
I2576
sS'security'
p850
I913
sS'attorney'
p851
I1745
sS'right'
p852
I64
sS'old'
p853
I190
sS'deal'
p854
I376
sS'people'
p855
I130
sS'deaf'
p856
I3679
sS'somehow'
p857
I1340
sS'dead'
p858
I230
sS'jennifer'
p859
I2911
sS'born'
p860
I856
sS'clubs'
p861
I4082
sS"an'"
p862
I701
sS"nothing's"
p863
I2259
sS'election'
p864
I4061
sS'escape'
p865
I1643
sS'dear'
p866
I571
sS'prick'
p867
I2462
sS'guess'
p868
I222
sS'library'
p869
I2642
sS'forgotten'
p870
I1839
sS'cocaine'
p871
I2604
sS'humor'
p872
I2340
sS'theatre'
p873
I3340
sS'for'
p874
I25
sS'bottom'
p875
I1811
sS'purple'
p876
I3547
sS'opposite'
p877
I3430
sS'fox'
p878
I2952
sS'ice'
p879
I951
sS'creative'
p880
I3965
sS'everything'
p881
I226
sS'asking'
p882
I590
sS'fights'
p883
I3998
sS'umm'
p884
I2797
sS'offices'
p885
I3804
sS'beating'
p886
I3322
sS'christmas'
p887
I970
sS'holiday'
p888
I2929
sS"thing's"
p889
I3924
sS'peel'
p890
I2727
sS"ol'"
p891
I2560
sS'payment'
p892
I3351
sS'burn'
p893
I1622
sS'nancy'
p894
I3713
sS'disappeared'
p895
I1852
sS'cheating'
p896
I3830
sS'losing'
p897
I1390
sS'post'
p898
I1444
sS'super'
p899
I2342
sS'proceed'
p900
I3366
sS'mulwray'
p901
I2916
sS"something's"
p902
I1696
sS'yelling'
p903
I4003
sS'cowboy'
p904
I2679
sS'dollars'
p905
I475
sS'months'
p906
I550
sS'o'
p907
I730
sS'costs'
p908
I3390
sS'dinner'
p909
I564
sS"askin'"
p910
I2948
sS'plus'
p911
I1237
sS'afternoon'
p912
I916
sS'commit'
p913
I3167
sS'kyle'
p914
I3945
sS'match'
p915
I1937
sS'bath'
p916
I2268
sS'nerve'
p917
I1993
sS'raised'
p918
I2795
sS'sheets'
p919
I3350
sS'lied'
p920
I1399
sS'presence'
p921
I3020
sS'wasting'
p922
I2249
sS'material'
p923
I2655
sS'ahh'
p924
I2424
sS'honeymoon'
p925
I2947
sS'profession'
p926
I4055
sS'bound'
p927
I2698
sS'two'
p928
I137
sS"'bout"
p929
I943
sS'lies'
p930
I1930
sS'wrap'
p931
I3949
sS'dean'
p932
I3027
sS'frightened'
p933
I1803
sS'east'
p934
I1618
sS'beth'
p935
I1897
sS'crowd'
p936
I2245
sS'support'
p937
I1649
sS'flying'
p938
I1831
sS'available'
p939
I2457
sS'vision'
p940
I2685
sS'fight'
p941
I581
sS'gig'
p942
I3607
sS'stuck'
p943
I1061
sS'fought'
p944
I2458
sS"boy's"
p945
I2715
sS'way'
p946
I114
sS'spring'
p947
I2106
sS'jane'
p948
I1915
sS'music'
p949
I786
sS'was'
p950
I33
sS'war'
p951
I505
sS'shhh'
p952
I2158
sS'happy'
p953
I434
sS'bert'
p954
I3533
sS'head'
p955
I324
sS'form'
p956
I1441
sS'offer'
p957
I899
sS'batman'
p958
I3824
sS'becoming'
p959
I2850
sS'gorgeous'
p960
I3541
sS'landing'
p961
I3586
sS'ford'
p962
I2971
sS'failure'
p963
I2650
sS'heat'
p964
I1468
sS'uncle'
p965
I924
sS'surrender'
p966
I2960
sS'true'
p967
I389
sS'fort'
p968
I2902
sS'congratulations'
p969
I1689
sS'urgent'
p970
I3450
sS'inside'
p971
I513
sS'bargain'
p972
I3397
sS'until'
p973
I379
sS'whiskey'
p974
I2993
sS'emotional'
p975
I2398
sS'education'
p976
I3735
sS'daddy'
p977
I579
sS'promises'
p978
I3955
sS'proud'
p979
I1312
sS'sticks'
p980
I3691
sS'classic'
p981
I3692
sS'request'
p982
I2336
sS'covers'
p983
I3717
sS'evidence'
p984
I1117
sS'sometime'
p985
I1603
sS'exist'
p986
I2068
sS'promised'
p987
I1113
sS'fashioned'
p988
I4077
sS'prayer'
p989
I3380
sS'ship'
p990
I601
sS'tooth'
p991
I2681
sS'trip'
p992
I867
sS'shit'
p993
I197
sS'physical'
p994
I1802
sS'pipe'
p995
I3941
sS'dying'
p996
I1040
sS'floor'
p997
I914
sS'stake'
p998
I2399
sS'when'
p999
I80
sS'actor'
p1000
I2001
sS'reality'
p1001
I2041
sS'til'
p1002
I3490
sS'tim'
p1003
I2343
sS'interested'
p1004
I697
sS'creep'
p1005
I3285
sS'holding'
p1006
I1165
sS'papers'
p1007
I1026
sS'test'
p1008
I1074
sS'tie'
p1009
I1427
sS'enemies'
p1010
I2694
sS'smell'
p1011
I1108
sS'roll'
p1012
I1568
sS'realize'
p1013
I897
sS'studied'
p1014
I3896
sS'picture'
p1015
I663
sS'weir'
p1016
I3946
sS'intend'
p1017
I2145
sS'brothers'
p1018
I1177
sS'cab'
p1019
I1570
sS"o'clock"
p1020
I942
sS'wing'
p1021
I3185
sS'surprise'
p1022
I1002
sS'cheat'
p1023
I3648
sS'welcome'
p1024
I944
sS'polite'
p1025
I3508
sS'diet'
p1026
I3550
sS'cooperate'
p1027
I3818
sS"let's"
p1028
I195
sS'fell'
p1029
I1251
sS'professional'
p1030
I1668
sS'cooper'
p1031
I3473
sS'aware'
p1032
I1769
sS'weekend'
p1033
I1331
sS'diamonds'
p1034
I3565
sS'died'
p1035
I531
sS'stops'
p1036
I2770
sS'jones'
p1037
I2157
sS'merle'
p1038
I3740
sS'younger'
p1039
I2210
sS'longer'
p1040
I875
sS'bullet'
p1041
I2002
sS'glass'
p1042
I1272
sS'assume'
p1043
I1715
sS'normally'
p1044
I3524
sS'yacht'
p1045
I3961
sS'flag'
p1046
I3994
sS'together'
p1047
I346
sS'jacket'
p1048
I1784
sS"life's"
p1049
I3213
sS'loyal'
p1050
I3857
sS'vietnam'
p1051
I3681
sS'time'
p1052
I89
sS'push'
p1053
I1470
sS'serious'
p1054
I539
sS'someplace'
p1055
I1814
sS'dust'
p1056
I2843
sS'decision'
p1057
I1498
sS'basically'
p1058
I2768
sS'neighbors'
p1059
I3293
sS'shop'
p1060
I1463
sS'deals'
p1061
I3724
sS'managed'
p1062
I3218
sS'vampires'
p1063
I3065
sS'chain'
p1064
I2812
sS'whoever'
p1065
I1553
sS'dance'
p1066
I890
sS'skip'
p1067
I2551
sS'rob'
p1068
I1404
sS'goddammit'
p1069
I3434
sS'rod'
p1070
I3233
sS'focus'
p1071
I2743
sS'leads'
p1072
I1821
sS'roy'
p1073
I1965
sS'manager'
p1074
I1716
sS'mile'
p1075
I2264
sS'grateful'
p1076
I2152
sS'skin'
p1077
I1542
sS'battle'
p1078
I2250
sS'chair'
p1079
I1835
sS'milk'
p1080
I2044
sS'row'
p1081
I2756
sS'certainly'
p1082
I675
sS'suicide'
p1083
I1567
sS'william'
p1084
I1893
sS'zone'
p1085
I2785
sS"when's"
p1086
I3426
sS'april'
p1087
I3184
sS'father'
p1088
I260
sS'pen'
p1089
I2819
sS'passage'
p1090
I4062
sS'answered'
p1091
I3310
sS'finally'
p1092
I949
sS'oz'
p1093
I3849
sS'supplies'
p1094
I3123
sS'marks'
p1095
I2712
sS'moron'
p1096
I3379
sS'circumstances'
p1097
I2361
sS'me'
p1098
I19
sS'federation'
p1099
I2509
sS'jerk'
p1100
I1952
sS'hannah'
p1101
I2879
sS'scotty'
p1102
I3054
sS'none'
p1103
I672
sS'choice'
p1104
I780
sS'vegas'
p1105
I1559
sS'stays'
p1106
I3347
sS'cook'
p1107
I1950
sS'join'
p1108
I1012
sS'trouble'
p1109
I449
sS'blast'
p1110
I3278
sS'exact'
p1111
I2182
sS'minute'
p1112
I350
sS'cool'
p1113
I620
sS'drag'
p1114
I2263
sS'impressive'
p1115
I3149
sS'level'
p1116
I1298
sS'did'
p1117
I68
sS'die'
p1118
I391
sS'dig'
p1119
I1538
sS'brother'
p1120
I404
sS'gum'
p1121
I3499
sS'leave'
p1122
I232
sS'p'
p1123
I1121
sS'settle'
p1124
I1548
sS'diz'
p1125
I3771
sS'team'
p1126
I959
sS'quick'
p1127
I1003
sS'guy'
p1128
I188
sS'round'
p1129
I1305
sS"it'll"
p1130
I532
sS'prevent'
p1131
I4068
sS'talked'
p1132
I718
sS'says'
p1133
I310
sS'regret'
p1134
I2471
sS'core'
p1135
I3157
sS'dealing'
p1136
I1885
sS'sign'
p1137
I772
sS'cost'
p1138
I1025
sS'run'
p1139
I323
sS'rough'
p1140
I1392
sS'drinks'
p1141
I2021
sS'curse'
p1142
I2677
sS'appear'
p1143
I2461
sS'mall'
p1144
I3812
sS'rome'
p1145
I2318
sS'current'
p1146
I3786
sS'remembered'
p1147
I2774
sS'suspect'
p1148
I1368
sS'goes'
p1149
I507
sS'eaten'
p1150
I2900
sS'del'
p1151
I2848
sS'falling'
p1152
I1844
sS'principal'
p1153
I3520
sS'badge'
p1154
I2914
sS'filled'
p1155
I2407
sS'hairy'
p1156
I3516
sS'jury'
p1157
I2186
sS'can\x92t'
p1158
I3950
sS'funeral'
p1159
I1916
sS'henry'
p1160
I1458
sS'french'
p1161
I1006
sS'understanding'
p1162
I2351
sS'water'
p1163
I554
sS'sealed'
p1164
I3981
sS'baseball'
p1165
I2022
sS'yards'
p1166
I3080
sS'address'
p1167
I1143
sS'alone'
p1168
I347
sS'along'
p1169
I530
sS'teacher'
p1170
I1672
sS'change'
p1171
I474
sS'wait'
p1172
I228
sS'box'
p1173
I1057
sS'boy'
p1174
I275
sS'thirty'
p1175
I520
sS'brilliant'
p1176
I1859
sS'shift'
p1177
I2575
sS'teaching'
p1178
I3220
sS'title'
p1179
I2378
sS'guilty'
p1180
I1469
sS'merrick'
p1181
I3932
sS'bow'
p1182
I4059
sS'trial'
p1183
I1363
sS'creature'
p1184
I2069
sS'suggestion'
p1185
I3606
sS'usually'
p1186
I1009
sS'weird'
p1187
I883
sS'stew'
p1188
I3860
sS'treasure'
p1189
I3028
sS'love'
p1190
I153
sS'\x96\x96'
p1191
I3375
sS'extra'
p1192
I1367
sS'merely'
p1193
I3301
sS'prefer'
p1194
I1515
sS'bloody'
p1195
I1786
sS'marvelous'
p1196
I3630
sS'fake'
p1197
I2131
sS'fbi'
p1198
I1310
sS'sonofabitch'
p1199
I2503
sS'crisis'
p1200
I3784
sS'market'
p1201
I1782
sS'sky'
p1202
I2434
sS'everybody'
p1203
I466
sS'citizen'
p1204
I2790
sS'handled'
p1205
I3479
sS'working'
p1206
I396
sS'prove'
p1207
I983
sS'sake'
p1208
I851
sS'positive'
p1209
I1801
sS'angry'
p1210
I1233
sS'scan'
p1211
I3753
sS'dude'
p1212
I882
sS'tears'
p1213
I2962
sS'france'
p1214
I2133
sS'parties'
p1215
I2548
sS'live'
p1216
I301
sS'wood'
p1217
I2223
sS'andy'
p1218
I1372
sS'wondering'
p1219
I1111
sS'memory'
p1220
I1125
sS'wanting'
p1221
I2555
sS"makin'"
p1222
I2707
sS'clay'
p1223
I3187
sS'eighty'
p1224
I1713
sS'today'
p1225
I356
sS'ethan'
p1226
I2570
sS'plug'
p1227
I3764
sS'entrance'
p1228
I3835
sS'club'
p1229
I1038
sS'india'
p1230
I3970
sS'ooh'
p1231
I3596
sS'chocolate'
p1232
I2691
sS'downtown'
p1233
I2020
sS'everywhere'
p1234
I1565
sS'cases'
p1235
I2425
sS'effort'
p1236
I3789
sS'communist'
p1237
I3825
sS'fly'
p1238
I1007
sS"workin'"
p1239
I2640
sS'car'
p1240
I273
sS'pretend'
p1241
I1736
sS'soul'
p1242
I1120
sS'cat'
p1243
I1230
sS'wallet'
p1244
I2231
sS'judy'
p1245
I3525
sS'can'
p1246
I58
sS'royal'
p1247
I2305
sS'following'
p1248
I1448
sS'making'
p1249
I467
sS'tune'
p1250
I3333
sS'newspapers'
p1251
I3047
sS'slightest'
p1252
I4083
sS'heart'
p1253
I503
sS'crazy'
p1254
I348
sS'citizens'
p1255
I3591
sS'figure'
p1256
I557
sS'chip'
p1257
I2665
sS"comin'"
p1258
I1508
sS"didn't"
p1259
I94
sS'fuck'
p1260
I220
sS'agent'
p1261
I862
sS'soup'
p1262
I3169
sS'heard'
p1263
I274
sS'stroke'
p1264
I2762
sS'chin'
p1265
I3776
sS'dropped'
p1266
I1389
sS'council'
p1267
I3706
sS'allowed'
p1268
I1749
sS'offense'
p1269
I2221
sS'counting'
p1270
I2824
sS'stole'
p1271
I1208
sS'pink'
p1272
I2195
sS'winter'
p1273
I2546
sS'sidney'
p1274
I1989
sS'robinson'
p1275
I2780
sS'discussion'
p1276
I3268
sS'watching'
p1277
I848
sS'moves'
p1278
I2148
sS'magazine'
p1279
I1896
sS'write'
p1280
I607
sS'till'
p1281
I647
sS'sunday'
p1282
I1775
sS'actual'
p1283
I3215
sS'sword'
p1284
I1613
sS'swore'
p1285
I3439
sS'belongs'
p1286
I2272
sS'map'
p1287
I1820
sS'staying'
p1288
I954
sS'jazz'
p1289
I3276
sS'huge'
p1290
I2011
sS'may'
p1291
I287
sS'max'
p1292
I990
sS'sacrifice'
p1293
I3768
sS'fed'
p1294
I2556
sS'spot'
p1295
I1373
sS'mac'
p1296
I2051
sS'birthday'
p1297
I1071
sS'mad'
p1298
I750
sS'date'
p1299
I717
sS'such'
p1300
I359
sS'suck'
p1301
I2207
sS'truly'
p1302
I1725
sS'data'
p1303
I1324
sS'grow'
p1304
I1134
sS'man'
p1305
I105
sS'stress'
p1306
I3808
sS'natural'
p1307
I1492
sS'remember'
p1308
I215
sS'johnson'
p1309
I1889
sS'beam'
p1310
I2639
sS'whenever'
p1311
I1771
sS'maybe'
p1312
I126
sS'preacher'
p1313
I3554
sS'st'
p1314
I1707
sS'provide'
p1315
I2811
sS'switch'
p1316
I2009
sS'killers'
p1317
I3667
sS'so'
p1318
I48
sS'silence'
p1319
I3119
sS'tall'
p1320
I2220
sS'nixon'
p1321
I3895
sS'pulled'
p1322
I1289
sS'talk'
p1323
I148
sS'nearly'
p1324
I2004
sS'cute'
p1325
I1158
sS'comfort'
p1326
I3385
sS'shoes'
p1327
I1376
sS'duke'
p1328
I2927
sS'indeed'
p1329
I1475
sS'beaumont'
p1330
I3569
sS'midnight'
p1331
I2076
sS'years'
p1332
I192
sS'course'
p1333
I217
sS'occasion'
p1334
I3680
sS'shake'
p1335
I2562
sS'cold'
p1336
I641
sS'still'
p1337
I164
sS'birds'
p1338
I1705
sS'tore'
p1339
I3906
sS'revenge'
p1340
I2818
sS'police'
p1341
I456
sS'thank'
p1342
I224
sS'josie'
p1343
I3866
sS'how'
p1344
I59
sS'interesting'
p1345
I823
sS'comic'
p1346
I3876
sS'jim'
p1347
I832
sS'troubles'
p1348
I4050
sS'amazing'
p1349
I1255
sS"he'd"
p1350
I688
sS'civil'
p1351
I2802
sS'window'
p1352
I980
sS'according'
p1353
I1756
sS'pays'
p1354
I2845
sS'policy'
p1355
I2095
sS'ours'
p1356
I1748
sS'main'
p1357
I1619
sS'mommy'
p1358
I1667
sS'texas'
p1359
I2128
sS'happened'
p1360
I241
sS'non'
p1361
I2114
sS'lonely'
p1362
I1566
sS'3'
p1363
I2456
sS'smarter'
p1364
I3570
sS'killer'
p1365
I977
sS'sooner'
p1366
I1304
sS'nation'
p1367
I3517
sS'lunch'
p1368
I873
sS'touching'
p1369
I3004
sS"world's"
p1370
I2671
sS'half'
p1371
I377
sS'not'
p1372
I29
sS'now'
p1373
I66
sS'discuss'
p1374
I1356
sS'nor'
p1375
I1943
sS'josh'
p1376
I3146
sS'down'
p1377
I122
sS'term'
p1378
I2417
sS'name'
p1379
I201
sS'opera'
p1380
I1994
sS'james'
p1381
I878
sS'drop'
p1382
I729
sS'rock'
p1383
I1174
sS'entirely'
p1384
I2482
sS'quarter'
p1385
I1855
sS"mustn't"
p1386
I2577
sS'em'
p1387
I2999
sS'el'
p1388
I2027
sS'square'
p1389
I1737
sS'eh'
p1390
I773
sS'experiment'
p1391
I3001
sS'ed'
p1392
I1163
sS'kane'
p1393
I1919
sS'yeah'
p1394
I75
sS'goose'
p1395
I4074
sS'catching'
p1396
I3505
sS'ex'
p1397
I1528
sS'entering'
p1398
I3535
sS'year'
p1399
I399
sS'girl'
p1400
I239
sS'worried'
p1401
I758
sS'pills'
p1402
I2256
sS'tried'
p1403
I500
sS'living'
p1404
I594
sS'spock'
p1405
I1720
sS'jackson'
p1406
I3762
sS'opened'
p1407
I1826
sS'space'
p1408
I976
sS'profit'
p1409
I3848
sS'factory'
p1410
I3492
sS'looking'
p1411
I281
sS'lad'
p1412
I2323
sS'seriously'
p1413
I1181
sS'stupid'
p1414
I540
sS"shouldn't"
p1415
I541
sS'nerves'
p1416
I3560
sS'bless'
p1417
I3731
sS'correct'
p1418
I1138
sS'shows'
p1419
I1610
sS'earlier'
p1420
I1789
sS'monster'
p1421
I1442
sS'cars'
p1422
I1435
sS'million'
p1423
I553
sS'seventh'
p1424
I3809
sS'possibility'
p1425
I2585
sS'quite'
p1426
I450
sS'git'
p1427
I3409
sS'california'
p1428
I1338
sS'besides'
p1429
I698
sS'grandma'
p1430
I2860
sS'seventy'
p1431
I1274
sS'card'
p1432
I1069
sS'care'
p1433
I263
sS'advance'
p1434
I3800
sS'training'
p1435
I1345
sS'language'
p1436
I1722
sS'waiter'
p1437
I3889
sS'dunno'
p1438
I1212
sS'coulda'
p1439
I2807
sS'punk'
p1440
I3164
sS'british'
p1441
I1762
sS'honest'
p1442
I837
sS"lookin'"
p1443
I1445
sS'turn'
p1444
I407
sS'doolittle'
p1445
I3389
sS'place'
p1446
I202
sS'gordon'
p1447
I1728
sS'swing'
p1448
I2982
sS'promotion'
p1449
I3308
sS'widow'
p1450
I3582
sS'think'
p1451
I57
sS'waited'
p1452
I2042
sS'first'
p1453
I167
sS'blind'
p1454
I1351
sS'cheese'
p1455
I2621
sS'saving'
p1456
I2266
sS'madam'
p1457
I2647
sS'spoken'
p1458
I2382
sS'rachel'
p1459
I1997
sS'safety'
p1460
I2257
sS'yourself'
p1461
I252
sS'americans'
p1462
I2890
sS'long'
p1463
I182
sS'directly'
p1464
I2765
sS'spanish'
p1465
I3414
sS'carry'
p1466
I973
sS'impossible'
p1467
I1058
sS'message'
p1468
I915
sS'drove'
p1469
I1571
sS'open'
p1470
I444
sS'george'
p1471
I580
sS"'em"
p1472
I309
sS'size'
p1473
I1611
sS'city'
p1474
I584
sS'given'
p1475
I805
sS'ian'
p1476
I3275
sS'checked'
p1477
I1450
sS'silent'
p1478
I3509
sS'district'
p1479
I3410
sS'virgin'
p1480
I2884
sS'caught'
p1481
I802
sS'slept'
p1482
I1931
sS'response'
p1483
I3257
sS'anyone'
p1484
I371
sS'2'
p1485
I1816
sS'convention'
p1486
I3694
sS'white'
p1487
I534
sS'wore'
p1488
I3141
sS'bits'
p1489
I4014
sS'frame'
p1490
I3091
sS'friend'
p1491
I285
sS'gives'
p1492
I1022
sS'eyes'
p1493
I517
sS'mostly'
p1494
I1474
sS'that'
p1495
I16
sS'brains'
p1496
I1647
sS'moscow'
p1497
I3617
sS'universe'
p1498
I2275
sS'huh'
p1499
I212
sS'alan'
p1500
I2062
sS'cops'
p1501
I760
sS'ridiculous'
p1502
I1142
sS"daddy's"
p1503
I2997
sS'butt'
p1504
I1807
sS'copy'
p1505
I1402
sS'than'
p1506
I179
sS"here's"
p1507
I700
sS'boyfriend'
p1508
I1175
sS'10'
p1509
I2122
sS'television'
p1510
I1419
sS'bored'
p1511
I2288
sS'nathan'
p1512
I2803
sS'unfortunately'
p1513
I2394
sS'sailing'
p1514
I3522
sS'depressed'
p1515
I3286
sS'18'
p1516
I3910
sS'gotta'
p1517
I250
sS'future'
p1518
I880
sS'were'
p1519
I92
sS'miles'
p1520
I690
sS'college'
p1521
I921
sS'counselor'
p1522
I3403
sS'oath'
p1523
I3568
sS'damned'
p1524
I1544
sS'and'
p1525
I13
sS'san'
p1526
I1339
sS'sam'
p1527
I723
sS'sal'
p1528
I1739
sS'craig'
p1529
I2472
sS'ann'
p1530
I1543
sS'turned'
p1531
I776
sS'argument'
p1532
I2649
sS'alley'
p1533
I3751
sS'sad'
p1534
I1193
sS'say'
p1535
I93
sS'rent'
p1536
I1573
sS'anger'
p1537
I3548
sS'breakfast'
p1538
I1276
sS'saw'
p1539
I268
sS'any'
p1540
I123
sS'kevin'
p1541
I3121
sS'sat'
p1542
I2260
sS'sport'
p1543
I2699
sS'offering'
p1544
I3452
sS'ideas'
p1545
I1536
sS'shocked'
p1546
I3779
sS'zoo'
p1547
I2891
sS'note'
p1548
I1346
sS'equipment'
p1549
I2282
sS'squad'
p1550
I2386
sS'take'
p1551
I107
sS'destroy'
p1552
I1411
sS'paulie'
p1553
I3239
sS'concern'
p1554
I1827
sS'channel'
p1555
I3619
sS'malkovich'
p1556
I3555
sS'leading'
p1557
I3031
sS'begin'
p1558
I1357
sS'sure'
p1559
I116
sS'pain'
p1560
I982
sS'norman'
p1561
I1587
sS'trace'
p1562
I2599
sS'normal'
p1563
I1171
sS'track'
p1564
I1414
sS'cemetery'
p1565
I3481
sS'price'
p1566
I1051
sS'knew'
p1567
I278
sS'paid'
p1568
I762
sS'falls'
p1569
I2333
sS"there'll"
p1570
I2598
sS'occurred'
p1571
I2954
sS'pair'
p1572
I1899
sS'knee'
p1573
I3810
sS'america'
p1574
I1131
sS']'
p1575
I3443
sS'pages'
p1576
I3216
sS'forever'
p1577
I1140
sS'especially'
p1578
I1063
sS'lenny'
p1579
I2328
sS'considered'
p1580
I2531
sS'egg'
p1581
I3017
sS'average'
p1582
I3035
sS'later'
p1583
I461
sS'steady'
p1584
I2706
sS'hungry'
p1585
I998
sS'mrs'
p1586
I383
sS'federal'
p1587
I1758
sS'properly'
p1588
I3703
sS'pattern'
p1589
I2700
sS'hear'
p1590
I244
sS'senior'
p1591
I2941
sS'salt'
p1592
I3865
sS"takin'"
p1593
I2883
sS'laws'
p1594
I2675
sS'detective'
p1595
I1052
sS'walking'
p1596
I1130
sS'shot'
p1597
I453
sS'show'
p1598
I295
sS'german'
p1599
I2445
sS'cheap'
p1600
I1455
sS'fifty'
p1601
I537
sS'discovered'
p1602
I2327
sS'bright'
p1603
I1579
sS'shoe'
p1604
I2393
sS'corner'
p1605
I1494
sS'mister'
p1606
I662
sS'fifth'
p1607
I2609
sS'ground'
p1608
I1242
sS'&quot'
p1609
I3210
sS'weapons'
p1610
I1556
sS'slow'
p1611
I1019
sS'genius'
p1612
I2315
sS'dick'
p1613
I841
sS'behind'
p1614
I561
sS'crime'
p1615
I1049
sS'otis'
p1616
I2886
sS'only'
p1617
I131
sS'going'
p1618
I72
sS'black'
p1619
I536
sS'dreamed'
p1620
I3045
sS'thompson'
p1621
I4049
sS'explosion'
p1622
I4073
sS'get'
p1623
I46
sS'hostage'
p1624
I4010
sS'assistant'
p1625
I2199
sS'mayo'
p1626
I3868
sS'routine'
p1627
I2498
sS'freezing'
p1628
I3698
sS'mission'
p1629
I1186
sS'leon'
p1630
I1925
sS'cannot'
p1631
I759
sS'negative'
p1632
I1830
sS'gee'
p1633
I1195
sS'celebrate'
p1634
I3858
sS'pistol'
p1635
I3037
sS'lame'
p1636
I3802
sS'artist'
p1637
I2261
sS'hostages'
p1638
I4040
sS"else's"
p1639
I3497
sS'borrow'
p1640
I2322
sS'morning'
p1641
I315
sS'naked'
p1642
I2144
sS'jokes'
p1643
I2731
sS"goin'"
p1644
I635
sS'roger'
p1645
I1751
sS"could've"
p1646
I1433
sS'worries'
p1647
I3752
sS'scott'
p1648
I1654
sS'pants'
p1649
I1503
sS'where'
p1650
I101
sS"everything's"
p1651
I1250
sS'husband'
p1652
I558
sS"y'all"
p1653
I3628
sS'committed'
p1654
I3049
sS'up'
p1655
I53
sS'asleep'
p1656
I1135
sS'sean'
p1657
I2240
sS'parking'
p1658
I2594
sS'stanley'
p1659
I3262
sS'surgery'
p1660
I3354
sS'ruined'
p1661
I2108
sS'wonder'
p1662
I727
sS'um'
p1663
I803
sS'crystal'
p1664
I3920
sS'ways'
p1665
I1109
sS'jumped'
p1666
I2720
sS'senate'
p1667
I3359
sS"father's"
p1668
I1096
sS'outside'
p1669
I585
sS'bureau'
p1670
I2338
sS'between'
p1671
I572
sS'reading'
p1672
I1047
sS'across'
p1673
I955
sS'notice'
p1674
I1170
sS'jobs'
p1675
I2089
sS'august'
p1676
I3934
sS'useful'
p1677
I3168
sS'teddy'
p1678
I2930
sS'screen'
p1679
I2309
sS'points'
p1680
I2332
sS'killing'
p1681
I858
sS'blame'
p1682
I1094
sS'concentrate'
p1683
I3203
sS'spare'
p1684
I1652
sS'hurts'
p1685
I2212
sS"year's"
p1686
I3640
sS'article'
p1687
I2786
sS'come'
p1688
I87
sS'recall'
p1689
I1730
sS'reaction'
p1690
I2858
sS'dates'
p1691
I3511
sS'fried'
p1692
I3400
sS'mob'
p1693
I2593
sS"bein'"
p1694
I2383
sS'many'
p1695
I308
sS'quiet'
p1696
I869
sS'contract'
p1697
I1641
sS'personal'
p1698
I811
sS's'
p1699
I843
sS'senator'
p1700
I1395
sS'expression'
p1701
I4069
sS"can't"
p1702
I84
sS'duty'
p1703
I1370
sS'among'
p1704
I2115
sS'spoil'
p1705
I3772
sS'cancer'
p1706
I1878
sS'color'
p1707
I1396
sS'deeds'
p1708
I2953
sS'pot'
p1709
I3411
sS'period'
p1710
I2213
sS'pop'
p1711
I1129
sS'60'
p1712
I3709
sS'anti'
p1713
I2547
sS"couldn't"
p1714
I311
sS'cancel'
p1715
I3281
sS'ordered'
p1716
I1906
sS'crew'
p1717
I1311
sS'boat'
p1718
I871
sS'math'
p1719
I4032
sS'considering'
p1720
I2643
sS'destroyed'
p1721
I1904
sS'unusual'
p1722
I1883
sS'cares'
p1723
I1574
sS'stretch'
p1724
I3294
sS'west'
p1725
I1126
sS'vacation'
p1726
I1417
sS'mark'
p1727
I1053
sS'breath'
p1728
I1604
sS'mars'
p1729
I2620
sS'staring'
p1730
I2750
sS'hardly'
p1731
I933
sS'mary'
p1732
I692
sS'bullshit'
p1733
I583
sS'wants'
p1734
I360
sS'direction'
p1735
I2669
sS'shopping'
p1736
I2592
sS"what're"
p1737
I962
sS'monsieur'
p1738
I2057
sS'busting'
p1739
I3881
sS'robbed'
p1740
I2692
sS'thousand'
p1741
I403
sS'wanta'
p1742
I3089
sS'wake'
p1743
I906
sS'minister'
p1744
I3292
sS'asks'
p1745
I2888
sS'treatment'
p1746
I3549
sS'decisions'
p1747
I4063
sS'careful'
p1748
I793
sS'spirit'
p1749
I1864
sS'those'
p1750
I186
sS'pilot'
p1751
I2086
sS'case'
p1752
I366
sS'myself'
p1753
I336
sS'these'
p1754
I173
sS'cash'
p1755
I903
sS'arnold'
p1756
I3398
sS'trick'
p1757
I1451
sS'cast'
p1758
I2732
sS'tragedy'
p1759
I3682
sS'cure'
p1760
I2755
sS'pizza'
p1761
I2849
sS'newspaper'
p1762
I2101
sS'situation'
p1763
I879
sS'invited'
p1764
I1926
sS'eventually'
p1765
I2276
sS'engaged'
p1766
I2404
sS'coffee'
p1767
I715
sS'sleeping'
p1768
I1207
sS'middle'
p1769
I819
sS'good'
p1770
I77
sS'minds'
p1771
I2636
sS'return'
p1772
I1031
sS'property'
p1773
I1644
sS'technology'
p1774
I3773
sS'awhile'
p1775
I1632
sS'worry'
p1776
I381
sS'bags'
p1777
I2563
sS'different'
p1778
I448
sS'williams'
p1779
I2019
sS'pat'
p1780
I3874
sS'doctor'
p1781
I387
sS'pay'
p1782
I414
sS'granted'
p1783
I3282
sS'bowl'
p1784
I3180
sS'tour'
p1785
I2452
sS'same'
p1786
I283
sS'check'
p1787
I480
sS'gentlemen'
p1788
I1297
sS'food'
p1789
I693
sS'speech'
p1790
I1530
sS'yessir'
p1791
I3728
sS'pal'
p1792
I1241
sS'events'
p1793
I2793
sS'week'
p1794
I413
sS'noble'
p1795
I3406
sS'jeffrey'
p1796
I1315
sS'finish'
p1797
I796
sS'clue'
p1798
I3048
sS'closest'
p1799
I3909
sS'driver'
p1800
I2035
sS'director'
p1801
I1800
sS'running'
p1802
I546
sS'fruit'
p1803
I3155
sS'statue'
p1804
I3274
sS'intended'
p1805
I3729
sS'changing'
p1806
I2763
sS'totally'
p1807
I989
sS'tradition'
p1808
I3787
sS'theater'
p1809
I2436
sS'charges'
p1810
I3016
sS'random'
p1811
I3794
sS'no'
p1812
I31
sS'objection'
p1813
I3574
sS'without'
p1814
I319
sS'solve'
p1815
I3445
sS'comes'
p1816
I498
sS'bottle'
p1817
I1660
sS'communications'
p1818
I3611
sS'model'
p1819
I2428
sS'reward'
p1820
I2535
sS'bodies'
p1821
I1578
sS'skipper'
p1822
I3188
sS'taxi'
p1823
I2777
sS'summer'
p1824
I1217
sS'frankie'
p1825
I2440
sS'being'
p1826
I277
sS'money'
p1827
I168
sS'toby'
p1828
I2880
sS'rest'
p1829
I492
sS'wally'
p1830
I3845
sS'charley'
p1831
I2761
sS'kill'
p1832
I229
sS'handed'
p1833
I3485
sS'touch'
p1834
I678
sS'polish'
p1835
I3785
sS'speed'
p1836
I1849
sS'afterwards'
p1837
I3914
sS'blow'
p1838
I778
sS'death'
p1839
I486
sS'kirk'
p1840
I2565
sS'thinking'
p1841
I373
sS'rose'
p1842
I842
sS"everyone's"
p1843
I1975
sS'seems'
p1844
I560
sS'except'
p1845
I696
sS'lets'
p1846
I2459
sS'setting'
p1847
I2996
sS'4'
p1848
I2389
sS'mcmurphy'
p1849
I3284
sS'struck'
p1850
I3033
sS'saint'
p1851
I3267
sS'ellen'
p1852
I2967
sS'real'
p1853
I246
sS'starving'
p1854
I4015
sS'jake'
p1855
I917
sS'around'
p1856
I171
sS'kills'
p1857
I2448
sS'easily'
p1858
I2540
sS'read'
p1859
I382
sS'highness'
p1860
I4087
sS'virginia'
p1861
I3103
sS'gonna'
p1862
I125
sS'early'
p1863
I817
sS'traffic'
p1864
I2344
sS'insist'
p1865
I2365
sS'listening'
p1866
I1010
sS'holly'
p1867
I3737
sS'using'
p1868
I1194
sS'railroad'
p1869
I3668
sS'lady'
p1870
I597
sS'dare'
p1871
I2039
sS'alexander'
p1872
I2634
sS'fortune'
p1873
I1752
sS'stranger'
p1874
I3140
sS'pounds'
p1875
I1522
sS"thinkin'"
p1876
I1951
sS'patrick'
p1877
I2147
sS'buddies'
p1878
I3695
sS'miracle'
p1879
I2061
sS'shrink'
p1880
I2806
sS'chamber'
p1881
I3236
sS'gimme'
p1882
I1205
sS'nose'
p1883
I1105
sS'robbery'
p1884
I3790
sS'fully'
p1885
I2484
sS'beverly'
p1886
I3355
sS'served'
p1887
I2651
sS'tower'
p1888
I2225
sS'sharp'
p1889
I2917
sS'twelve'
p1890
I830
sS'sack'
p1891
I3623
sS'learning'
p1892
I2054
sS'joking'
p1893
I2826
sS'doll'
p1894
I2167
sS'barton'
p1895
I4045
sS'competition'
p1896
I3938
sS'lucy'
p1897
I2933
sS'japanese'
p1898
I3018
sS'eddie'
p1899
I950
sS'table'
p1900
I994
sS"'s"
p1901
I2648
sS'thinks'
p1902
I646
sS'reasons'
p1903
I1606
sS'deputy'
p1904
I3086
sS'gross'
p1905
I3237
sS'mood'
p1906
I1887
sS'dunbar'
p1907
I2782
sS"o'"
p1908
I2532
sS'memories'
p1909
I2489
sS'ability'
p1910
I3102
sS'legal'
p1911
I2003
sS'moon'
p1912
I1593
sS'outa'
p1913
I2950
sS'throat'
p1914
I1907
sS'priest'
p1915
I2821
sS'exit'
p1916
I3135
sS'dies'
p1917
I2319
sS'50'
p1918
I3272
sS'willie'
p1919
I2984
sS'decent'
p1920
I2117
sS'knife'
p1921
I1785
sS'turkey'
p1922
I3126
sS'felt'
p1923
I744
sS'business'
p1924
I296
sS'poem'
p1925
I3483
sS'seconds'
p1926
I1076
sS'papa'
p1927
I4041
sS'broken'
p1928
I1225
sS'sixty'
p1929
I1282
sS'exciting'
p1930
I2468
sS'throw'
p1931
I756
sS"'the"
p1932
I3110
sS'on'
p1933
I36
sS'stone'
p1934
I1479
sS'ok'
p1935
I544
sS'ace'
p1936
I3631
sS'oh'
p1937
I74
sS'island'
p1938
I1004
sS'capable'
p1939
I2193
sS'favorite'
p1940
I1265
sS'meaning'
p1941
I1386
sS'greater'
p1942
I3622
sS'thousands'
p1943
I2211
sS'practical'
p1944
I3875
sS'journey'
p1945
I2865
sS'wolf'
p1946
I2975
sS'stand'
p1947
I512
sS'neighbor'
p1948
I2536
sS'act'
p1949
I712
sS'mixed'
p1950
I2123
sS'luck'
p1951
I686
sS'or'
p1952
I97
sS'road'
p1953
I834
sS'howard'
p1954
I2265
sS'ladies'
p1955
I1759
sS'burning'
p1956
I2188
sS'soda'
p1957
I3892
sS'image'
p1958
I2711
sS'apologize'
p1959
I1320
sS'wade'
p1960
I2053
sS"tryin'"
p1961
I1732
sS'fantasy'
p1962
I3504
sS'your'
p1963
I28
sS'mental'
p1964
I2944
sS'palm'
p1965
I3700
sS'cared'
p1966
I2942
sS"how's"
p1967
I548
sS'her'
p1968
I69
sS'area'
p1969
I1301
sS'whales'
p1970
I3993
sS'assumed'
p1971
I4038
sS'strictly'
p1972
I3905
sS'there'
p1973
I63
sS'hey'
p1974
I187
sS'sides'
p1975
I3660
sS'strip'
p1976
I3801
sS'start'
p1977
I327
sS"how'd"
p1978
I722
sS'cats'
p1979
I2772
sS'low'
p1980
I1178
sS'lot'
p1981
I227
sS'lou'
p1982
I3076
sS'valley'
p1983
I2455
sS'heh'
p1984
I1418
sS'energy'
p1985
I1703
sS'treat'
p1986
I1516
sS'brooklyn'
p1987
I3415
sS'billion'
p1988
I3129
sS'complete'
p1989
I1446
sS'enough'
p1990
I245
sS'peggy'
p1991
I3638
sS'spider'
p1992
I4095
sS'ended'
p1993
I2161
sS'survived'
p1994
I3855
sS'fighter'
p1995
I3661
sS'trying'
p1996
I267
sS'with'
p1997
I40
sS'buying'
p1998
I1825
sS'happening'
p1999
I844
sS'football'
p2000
I2668
sS'pull'
p2001
I668
sS'hire'
p2002
I2118
sS'arranged'
p2003
I2626
sS'romantic'
p2004
I2005
sS"wasn't"
p2005
I249
sS'crawford'
p2006
I3897
sS'vice'
p2007
I2206
sS'freddy'
p2008
I3427
sS"brother's"
p2009
I3418
sS'dirty'
p2010
I1248
sS'suitcase'
p2011
I3512
sS'grass'
p2012
I3827
sS'agree'
p2013
I1157
sS"'course"
p2014
I2889
sS'gone'
p2015
I362
sS'taylor'
p2016
I1850
sS'ad'
p2017
I3277
sS'johnny'
p2018
I910
sS'taste'
p2019
I1332
sS'certain'
p2020
I825
sS'stealing'
p2021
I2447
sS'moved'
p2022
I1035
sS'al'
p2023
I1449
sS'deep'
p2024
I1005
sS'fellow'
p2025
I1275
sS'alarm'
p2026
I2372
sS'as'
p2027
I78
sS"she'd"
p2028
I1219
sS'file'
p2029
I1213
sS'walks'
p2030
I2418
sS'girlfriend'
p2031
I1082
sS'watched'
p2032
I1653
sS'horse'
p2033
I1060
sS'dawn'
p2034
I2789
sS'film'
p2035
I1183
sS'fill'
p2036
I1617
sS'again'
p2037
I204
sS'heather'
p2038
I2816
sS'goddam'
p2039
I2524
sS'idiot'
p2040
I1114
sS'deserve'
p2041
I1547
sS'storage'
p2042
I3634
sS'saturday'
p2043
I1520
sS'tight'
p2044
I1335
sS'creasy'
p2045
I3457
sS'5'
p2046
I2172
sS'you'
p2047
I5
sS'trash'
p2048
I3263
sS'offered'
p2049
I2320
sS'poor'
p2050
I625
sS'congress'
p2051
I2439
sS'separate'
p2052
I2724
sS'students'
p2053
I3283
sS'symbol'
p2054
I3979
sS'teeth'
p2055
I1425
sS'carpenter'
p2056
I3255
sS'important'
p2057
I483
sS'bullets'
p2058
I2194
sS'what\x92s'
p2059
I3811
sS'fresh'
p2060
I1805
sS'chris'
p2061
I3478
sS'pool'
p2062
I1541
sS'chuck'
p2063
I3847
sS'building'
p2064
I861
sS'calls'
p2065
I864
sS'wife'
p2066
I330
sS'tricks'
p2067
I2405
sS'mask'
p2068
I1947
sS'hello'
p2069
I364
sS'u'
p2070
I1554
sS'adam'
p2071
I1934
sS'alright'
p2072
I406
sS'songs'
p2073
I3177
sS'starting'
p2074
I1080
sS'original'
p2075
I2227
sS'represent'
p2076
I3746
sS'all'
p2077
I43
sS'liar'
p2078
I1511
sS'forget'
p2079
I361
sS'chinese'
p2080
I1860
sS"sittin'"
p2081
I3986
sS'aids'
p2082
I4058
sS'caused'
p2083
I2422
sS'bull'
p2084
I2557
sS'dollar'
p2085
I1160
sS'month'
p2086
I829
sS'received'
p2087
I2915
sS'talks'
p2088
I2029
sS'follow'
p2089
I677
sS'faster'
p2090
I1824
sS'elvis'
p2091
I3381
sS'children'
p2092
I619
sS'hmmm'
p2093
I1902
sS'rumor'
p2094
I3991
sS'apartment'
p2095
I781
sS'hunting'
p2096
I2155
sS'tv'
p2097
I855
sS'thursday'
p2098
I1938
sS'laughing'
p2099
I2143
sS'gary'
p2100
I3332
sS'to'
p2101
I9
sS'tail'
p2102
I3104
sS'program'
p2103
I1424
sS'commander'
p2104
I1436
sS'th'
p2105
I3951
sS'dressing'
p2106
I3898
sS'smile'
p2107
I1971
sS'enjoying'
p2108
I3627
sS'ta'
p2109
I2444
sS'sound'
p2110
I611
sS'woman'
p2111
I333
sS'appointment'
p2112
I2201
sS'worse'
p2113
I721
sS'sitting'
p2114
I900
sS'very'
p2115
I128
sS'horror'
p2116
I2778
sS'paradise'
p2117
I3850
sS'tent'
p2118
I2751
sS'fat'
p2119
I1042
sS'ouch'
p2120
I3639
sS'toss'
p2121
I3987
sS'novel'
p2122
I3471
sS'worst'
p2123
I1283
sS'decide'
p2124
I1359
sS'fall'
p2125
I771
sS'awful'
p2126
I1044
sS'ticket'
p2127
I1348
sS'difference'
p2128
I774
sS'enter'
p2129
I2972
sS'condition'
p2130
I1405
sS'abandoned'
p2131
I3413
sS'treating'
p2132
I3150
sS'laura'
p2133
I2552
sS'pre'
p2134
I2913
sS'heaven'
p2135
I1218
sS'cable'
p2136
I3073
sS'louis'
p2137
I1119
sS'list'
p2138
I937
sS'joined'
p2139
I3074
sS'melanie'
p2140
I3997
sS'grandfather'
p2141
I2736
sS'large'
p2142
I1535
sS'sand'
p2143
I2923
sS'harry'
p2144
I634
sS'small'
p2145
I649
sS'lisa'
p2146
I2269
sS'hawk'
p2147
I4019
sS'webster'
p2148
I2873
sS"i'll"
p2149
I82
sS'benjamin'
p2150
I1757
sS'neighborhood'
p2151
I1741
sS'ten'
p2152
I355
sS'tea'
p2153
I1624
sS'streets'
p2154
I1838
sS'ted'
p2155
I1128
sS'straighten'
p2156
I3988
sS'past'
p2157
I719
sS"tellin'"
p2158
I1840
sS'zero'
p2159
I1794
sS'design'
p2160
I3240
sS'settled'
p2161
I2994
sS'lawyer'
p2162
I923
sS'pass'
p2163
I1014
sS'further'
p2164
I1640
sS'mill'
p2165
I3295
sS'returned'
p2166
I3317
sS'clarence'
p2167
I1969
sS'conscience'
p2168
I3194
sS'what'
p2169
I17
sS'stood'
p2170
I2529
sS'darkness'
p2171
I3166
sS'richard'
p2172
I1496
sS'clock'
p2173
I2435
sS'sun'
p2174
I1146
sS'section'
p2175
I2348
sS'witnesses'
p2176
I2787
sS'version'
p2177
I3542
sS'musta'
p2178
I3192
sS'scientists'
p2179
I3075
sS'nurse'
p2180
I1286
sS'public'
p2181
I1020
sS'deborah'
p2182
I4091
sS'movement'
p2183
I3372
sS'full'
p2184
I578
sS'christian'
p2185
I3462
sS"c'mon"
p2186
I687
sS'loose'
p2187
I1284
sS'venice'
p2188
I3741
sS'answers'
p2189
I1555
sS'motherfucker'
p2190
I1982
sS'hours'
p2191
I493
sS'tracks'
p2192
I3885
sS'trunk'
p2193
I1929
sS'depend'
p2194
I4027
sS'strong'
p2195
I1018
sS'shoulda'
p2196
I2360
sS'pleasant'
p2197
I3095
sS'search'
p2198
I1512
sS'bible'
p2199
I2373
sS'colored'
p2200
I3067
sS'ahead'
p2201
I575
sS"havin'"
p2202
I3832
sS'jackie'
p2203
I2006
sS'experience'
p2204
I1086
sS'soldier'
p2205
I2216
sS'airport'
p2206
I1564
sS'gittes'
p2207
I2928
sS'gear'
p2208
I2661
sS'pick'
p2209
I529
sS'action'
p2210
I1422
sS"would've"
p2211
I1438
sS'unknown'
p2212
I3894
sS'options'
p2213
I3200
sS'headache'
p2214
I3021
sS'flash'
p2215
I3999
sS'followed'
p2216
I1690
sS'family'
p2217
I433
sS'suddenly'
p2218
I1517
sS'africa'
p2219
I2866
sS'disgusting'
p2220
I3296
sS'put'
p2221
I191
sS'trained'
p2222
I2497
sS'pulls'
p2223
I3558
sS'gosh'
p2224
I2255
sS'armed'
p2225
I2217
sS'eye'
p2226
I863
sS'takes'
p2227
I728
sS'rub'
p2228
I3744
sS'charge'
p2229
I1015
sS'vote'
p2230
I2783
sS'pearl'
p2231
I2632
sS'6'
p2232
I2132
sS'taken'
p2233
I640
sS'homework'
p2234
I3183
sS'minor'
p2235
I3077
sS'more'
p2236
I121
sS'horses'
p2237
I1909
sS'flat'
p2238
I2048
sS'diamond'
p2239
I3419
sS'door'
p2240
I481
sS'knows'
p2241
I386
sS'purse'
p2242
I3854
sS'company'
p2243
I699
sS'leonard'
p2244
I3884
sS'telephone'
p2245
I2064
sS'excuse'
p2246
I511
sS'germans'
p2247
I3176
sS"ain't"
p2248
I235
sS'stick'
p2249
I889
sS'broke'
p2250
I827
sS'particular'
p2251
I1742
sS'known'
p2252
I670
sS'hurry'
p2253
I833
sS'nineteen'
p2254
I2539
sS'glad'
p2255
I606
sS'town'
p2256
I440
sS'keeping'
p2257
I1240
sS'drank'
p2258
I3969
sS'hour'
p2259
I565
sS'blah'
p2260
I3367
sS'science'
p2261
I1472
sS'sucks'
p2262
I2965
sS'laurie'
p2263
I3556
sS'guards'
p2264
I2543
sS'remain'
p2265
I2966
sS'sudden'
p2266
I1841
sS'nine'
p2267
I661
sS'morgan'
p2268
I4016
sS'learn'
p2269
I679
sS'knocked'
p2270
I2477
sS'male'
p2271
I2208
sS'history'
p2272
I896
sS'beautiful'
p2273
I442
sS'shark'
p2274
I1872
sS'computers'
p2275
I3326
sS'embarrassing'
p2276
I2630
sS'brown'
p2277
I1430
sS'share'
p2278
I1161
sS'accept'
p2279
I1196
sS'states'
p2280
I1504
sS'pushed'
p2281
I3235
sS'numbers'
p2282
I1507
sS'sense'
p2283
I574
sS'station'
p2284
I1011
sS'scar'
p2285
I3006
sS'dress'
p2286
I1013
sS'species'
p2287
I2935
sS'!'
p2288
I15
sS'information'
p2289
I743
sS'needs'
p2290
I630
sS'beef'
p2291
I3099
sS'court'
p2292
I926
sS'advantage'
p2293
I2792
sS'rather'
p2294
I652
sS'breaking'
p2295
I1677
sS'stayed'
p2296
I1799
sS'everyday'
p2297
I3221
sS'disturbed'
p2298
I3673
sS'sacred'
p2299
I3491
sS'either'
p2300
I506
sS'plant'
p2301
I2376
sS'sandwich'
p2302
I3620
sS'okay'
p2303
I118
sS'plans'
p2304
I1095
sS'rude'
p2305
I2986
sS'advice'
p2306
I1234
sS'signature'
p2307
I3715
sS'sneak'
p2308
I2633
sS'doubts'
p2309
I4047
sS'replace'
p2310
I3852
sS'tries'
p2311
I2829
sS'plane'
p2312
I816
sS'blood'
p2313
I577
sS'coming'
p2314
I290
sS'develop'
p2315
I3984
sS"darlin'"
p2316
I2733
sS'fascinating'
p2317
I3249
sS'a'
p2318
I11
sS'refuse'
p2319
I2391
sS'short'
p2320
I932
sS'susan'
p2321
I1702
sS"that'd"
p2322
I2099
sS'coat'
p2323
I1819
sS'register'
p2324
I4017
sS'bugs'
p2325
I3438
sS'anytime'
p2326
I3178
sS'shore'
p2327
I3433
sS'responsibility'
p2328
I1881
sS'media'
p2329
I3393
sS'banks'
p2330
I2121
sS'pleasure'
p2331
I974
sS'dream'
p2332
I694
sS'playing'
p2333
I676
sS"that's"
p2334
I54
sS'chicks'
p2335
I3594
sS'mexican'
p2336
I3899
sS'help'
p2337
I180
sS"don't"
p2338
I21
sS'developed'
p2339
I3806
sS'flowers'
p2340
I1765
sS'soon'
p2341
I423
sS'trade'
p2342
I1861
sS'held'
p2343
I1493
sS'attitude'
p2344
I1770
sS'paper'
p2345
I804
sS'through'
p2346
I258
sS'committee'
p2347
I2341
sS'signs'
p2348
I2246
sS'hell'
p2349
I211
sS'suffer'
p2350
I3134
sS'avenue'
p2351
I2757
sS'its'
p2352
I623
sS'24'
p2353
I3251
sS'messed'
p2354
I3057
sS'style'
p2355
I2014
sS'20'
p2356
I2541
sS'pray'
p2357
I2180
sS'border'
p2358
I2760
sS'sale'
p2359
I2451
sS'fate'
p2360
I2442
sS'scully'
p2361
I3654
sS'actually'
p2362
I395
sS'late'
p2363
I419
sS'parts'
p2364
I2103
sS'systems'
p2365
I2304
sS'stephen'
p2366
I3526
sS'might'
p2367
I237
sS"haven't"
p2368
I280
sS'fool'
p2369
I912
sS'dil'
p2370
I3974
sS'hurting'
p2371
I2747
sS'evening'
p2372
I891
sS'somebody'
p2373
I380
sS'yo'
p2374
I1397
sS'grip'
p2375
I3862
sS'ya'
p2376
I303
sS'sucker'
p2377
I3318
sS'ye'
p2378
I2219
sS'woulda'
p2379
I3011
sS'inch'
p2380
I2939
sS'walls'
p2381
I2646
sS"you've"
p2382
I159
sS'foot'
p2383
I1371
sS'complain'
p2384
I3566
sS'bigger'
p2385
I1580
sS'instructions'
p2386
I2813
sS'mystery'
p2387
I2709
sS'growing'
p2388
I2232
sS'pregnant'
p2389
I1773
sS'always'
p2390
I184
sS'policeman'
p2391
I2831
sS'spy'
p2392
I3307
sS'tear'
p2393
I2215
sS'someone'
p2394
I256
sS'stopped'
p2395
I995
sS'turns'
p2396
I1388
sS'found'
p2397
I312
sS'fairy'
p2398
I3624
sS'friendship'
p2399
I3608
sS'notes'
p2400
I2859
sS"isn't"
p2401
I189
sS'mercy'
p2402
I3217
sS'heavy'
p2403
I1352
sS'harm'
p2404
I2052
sS'everyone'
p2405
I527
sS'england'
p2406
I1675
sS'upstairs'
p2407
I1220
sS'weight'
p2408
I1842
sS'house'
p2409
I255
sS'fish'
p2410
I1068
sS'hard'
p2411
I335
sS'idea'
p2412
I302
sS'gun'
p2413
I491
sS'oil'
p2414
I1557
sS'expect'
p2415
I658
sS'operation'
p2416
I1766
sS'beyond'
p2417
I1384
sS'insurance'
p2418
I1456
sS'really'
p2419
I115
sS'gus'
p2420
I3024
sS'maxine'
p2421
I3108
sS'flower'
p2422
I3341
sS'missed'
p2423
I992
sS'wondered'
p2424
I2169
sS'robert'
p2425
I1485
sS'since'
p2426
I340
sS'testify'
p2427
I2893
sS'research'
p2428
I1774
sS'reverend'
p2429
I3138
sS'acting'
p2430
I1089
sS'health'
p2431
I1955
sS'hill'
p2432
I2308
sS"they'll"
p2433
I458
sS'rifle'
p2434
I3683
sS'print'
p2435
I2564
sS'darling'
p2436
I876
sS'issue'
p2437
I1948
sS'highway'
p2438
I2998
sS'ass'
p2439
I400
sS'pathetic'
p2440
I2530
sS'dirt'
p2441
I2350
sS'friday'
p2442
I1625
sS'forgive'
p2443
I975
sS'mmm'
p2444
I1862
sS'houses'
p2445
I3056
sS'reason'
p2446
I497
sS'base'
p2447
I1683
sS'members'
p2448
I3362
sS'imagine'
p2449
I840
sS'ask'
p2450
I236
sS'teach'
p2451
I1123
sS'beginning'
p2452
I1093
sS'jew'
p2453
I2951
sS'thrown'
p2454
I2572
sS'driven'
p2455
I3723
sS'deer'
p2456
I3707
sS'launch'
p2457
I3211
sS"woman's"
p2458
I2805
sS'terrible'
p2459
I789
sS'didn\x92t'
p2460
I3412
sS'terribly'
p2461
I2618
sS'american'
p2462
I835
sS'expecting'
p2463
I1699
sS'w'
p2464
I1991
sS'divorce'
p2465
I1711
sS'castle'
p2466
I2097
sS'bernie'
p2467
I3912
sS'fallen'
p2468
I3060
sS'feed'
p2469
I1476
sS'major'
p2470
I746
sS'slipped'
p2471
I3137
sS'feel'
p2472
I209
sS'number'
p2473
I516
sS'fancy'
p2474
I2191
sS'feet'
p2475
I775
sS'sisters'
p2476
I2146
sS'sailor'
p2477
I1890
sS'brave'
p2478
I2324
sS'done'
p2479
I253
sS'blank'
p2480
I3474
sS'miss'
p2481
I307
sS'carter'
p2482
I2090
sS'paine'
p2483
I3851
sS'story'
p2484
I402
sS'"'
p2485
I70
sS'heads'
p2486
I1562
sS'guest'
p2487
I1693
sS'jet'
p2488
I3602
sS'script'
p2489
I2046
sS'twenty'
p2490
I370
sS'threatening'
p2491
I3391
sS'dickson'
p2492
I3663
sS'least'
p2493
I421
sS'lobby'
p2494
I3807
sS'paint'
p2495
I2120
sS'bum'
p2496
I2672
sS'wonderful'
p2497
I648
sS'passed'
p2498
I1482
sS'mama'
p2499
I874
sS'hundred'
p2500
I314
sS'store'
p2501
I831
sS'starfleet'
p2502
I2364
sS'selling'
p2503
I1956
sS'storm'
p2504
I1848
sS'relationship'
p2505
I1333
sS'trapped'
p2506
I3118
sS'norma'
p2507
I4025
sS'hotel'
p2508
I707
sS'park'
p2509
I1141
sS'mmmm'
p2510
I3477
sS'part'
p2511
I372
sS'worrying'
p2512
I2979
sS'doctors'
p2513
I1478
sS'believe'
p2514
I177
sS'stairs'
p2515
I2721
sS'grace'
p2516
I1261
sS'king'
p2517
I691
sS'kind'
p2518
I213
sS'b'
p2519
I894
sS"hell's"
p2520
I2151
sS'gotten'
p2521
I978
sS'genesis'
p2522
I3298
sS'youth'
p2523
I3641
sS'bride'
p2524
I2943
sS'determined'
p2525
I3685
sS'marriage'
p2526
I1127
sS'supposed'
p2527
I378
sS'chairman'
p2528
I4085
sS'toward'
p2529
I2202
sS"'til"
p2530
I2346
sS'dana'
p2531
I3264
sS'traveling'
p2532
I3962
sS'mickey'
p2533
I1869
sS'ranch'
p2534
I2825
sS'outta'
p2535
I731
sS'uncomfortable'
p2536
I3488
sS'suspicious'
p2537
I2558
sS'gale'
p2538
I2499
sS'cleaned'
p2539
I2582
sS"nothin'"
p2540
I788
sS'orders'
p2541
I1102
sS'karl'
p2542
I2251
sS'option'
p2543
I3422
sS'sell'
p2544
I847
sS'lie'
p2545
I632
sS'nights'
p2546
I1726
sS'built'
p2547
I1287
sS'dancing'
p2548
I1920
sS'self'
p2549
I1090
sS'cave'
p2550
I3147
sS'officers'
p2551
I2610
sS'port'
p2552
I2968
sS'also'
p2553
I587
sS'caesar'
p2554
I2129
sS'build'
p2555
I1349
sS'finding'
p2556
I2075
sS'fella'
p2557
I1499
sS'liz'
p2558
I3777
sS'play'
p2559
I341
sS'jamie'
p2560
I3068
sS'reckon'
p2561
I2196
sS'albert'
p2562
I2608
sS'eggs'
p2563
I1812
sS'reach'
p2564
I1085
sS'freddie'
p2565
I3195
sS'most'
p2566
I328
sS'virus'
p2567
I1922
sS'hired'
p2568
I1484
sS'charm'
p2569
I4060
sS'plan'
p2570
I609
sS"'cause"
p2571
I613
sS'nothing'
p2572
I151
sS'kay'
p2573
I2413
sS'extremely'
p2574
I2416
sS'gain'
p2575
I3585
sS'stands'
p2576
I2832
sS'salary'
p2577
I3356
sS'bug'
p2578
I2506
sS'lessons'
p2579
I3697
sS'windows'
p2580
I2920
sS'clear'
p2581
I720
sS'sometimes'
p2582
I485
sS'cover'
p2583
I1046
sS'_START_'
p2584
I1
sS'intention'
p2585
I3726
sS'clean'
p2586
I757
sS'charged'
p2587
I3337
sS'lying'
p2588
I787
sS'stones'
p2589
I2737
sS'thomas'
p2590
I1443
sS'particularly'
p2591
I2379
sS'gold'
p2592
I1050
sS'helen'
p2593
I2588
sS'disappointed'
p2594
I3453
sS'carefully'
p2595
I1967
sS'uniform'
p2596
I2798
sS'fine'
p2597
I231
sS'find'
p2598
I165
sS'faces'
p2599
I3343
sS'access'
p2600
I2047
sS'giant'
p2601
I3297
sS'justice'
p2602
I1673
sS'nervous'
p2603
I941
sS'ruin'
p2604
I2007
sS'writer'
p2605
I1678
sS'rotten'
p2606
I3470
sS'unhappy'
p2607
I2463
sS'failed'
p2608
I2931
sS'wayne'
p2609
I2537
sS'pretty'
p2610
I294
sS'8'
p2611
I2612
sS'bernstein'
p2612
I3795
sS'kramer'
p2613
I3336
sS"mom's"
p2614
I2871
sS'lombard'
p2615
I3536
sS'his'
p2616
I83
sS'hit'
p2617
I452
sS'therefore'
p2618
I3879
sS'permission'
p2619
I2176
sS'bend'
p2620
I3544
sS'luke'
p2621
I1658
sS'express'
p2622
I3503
sS'trees'
p2623
I2229
sS"they'd"
p2624
I985
sS'feels'
p2625
I1227
sS'grew'
p2626
I2174
sS'hid'
p2627
I3223
sS'valuable'
p2628
I2974
sS'pretending'
p2629
I3300
sS'basement'
p2630
I2420
sS'during'
p2631
I1202
sS'him'
p2632
I52
sS'jeanne'
p2633
I2631
sS'enemy'
p2634
I1477
sS'frankly'
p2635
I2126
sS'cry'
p2636
I1486
sS'bothering'
p2637
I2635
sS'remove'
p2638
I3289
sS'common'
p2639
I1452
sS'double'
p2640
I1180
sS'x'
p2641
I2358
sS'vincent'
p2642
I3025
sS'river'
p2643
I1247
sS'guessed'
p2644
I3983
sS'wrote'
p2645
I971
sS'fishing'
p2646
I2430
sS'insane'
p2647
I1278
sS'seventeen'
p2648
I2119
sS'set'
p2649
I478
sS'art'
p2650
I1048
sS'dump'
p2651
I1854
sS'throwing'
p2652
I2478
sS'intelligence'
p2653
I2241
sS'feds'
p2654
I3688
sS'sex'
p2655
I637
sS'see'
p2656
I76
sS'defense'
p2657
I1876
sS'dumb'
p2658
I1088
sS'are'
p2659
I39
sS'sea'
p2660
I1224
sS'close'
p2661
I487
sS'arm'
p2662
I1210
sS'chose'
p2663
I3543
sS'project'
p2664
I1901
sS'spirits'
p2665
I3829
sS'expert'
p2666
I2083
sS'stu'
p2667
I2991
sS'pictures'
p2668
I961
sS'wow'
p2669
I927
sS'exchange'
p2670
I2961
sS'please'
p2671
I183
sS"kid's"
p2672
I3214
sS'won'
p2673
I1137
sS'happiness'
p2674
I3266
sS'affairs'
p2675
I3299
sS'probably'
p2676
I337
sS'burned'
p2677
I1779
sS'champagne'
p2678
I2464
sS'nope'
p2679
I1303
sS'monsters'
p2680
I3856
sS'compliment'
p2681
I2822
sS'piss'
p2682
I1865
sS'knowing'
p2683
I1321
sS'recently'
p2684
I2197
sS'missing'
p2685
I988
sS'sold'
p2686
I1334
sS'attention'
p2687
I1133
sS'outfit'
p2688
I2983
sS'wyatt'
p2689
I2779
sS'incident'
p2690
I3288
sS'betrayed'
p2691
I3386
sS'pissed'
p2692
I1701
sS'both'
p2693
I435
sS'c'
p2694
I886
sS'garrison'
p2695
I3931
sS'last'
p2696
I175
sS'reverse'
p2697
I4028
sS'license'
p2698
I1791
sS'restaurant'
p2699
I2116
sS'thou'
p2700
I1514
sS'treated'
p2701
I2683
sS"wouldn't"
p2702
I221
sS'barely'
p2703
I2237
sS'event'
p2704
I2262
sS'foreign'
p2705
I2754
sS'sensitive'
p2706
I2514
sS'connection'
p2707
I1836
sS'became'
p2708
I1941
sS'annie'
p2709
I1666
sS"we've"
p2710
I292
sS'collection'
p2711
I3083
sS'witch'
p2712
I2136
sS'bond'
p2713
I2187
sS'whole'
p2714
I300
sS'finds'
p2715
I2010
sS'baltimore'
p2716
I3989
sS'load'
p2717
I1903
sS'liked'
p2718
I798
sS'guts'
p2719
I2285
sS'elliot'
p2720
I3010
sS'majesty'
p2721
I1558
sS'point'
p2722
I358
sS'simple'
p2723
I733
sS'sweet'
p2724
I761
sS'loan'
p2725
I2189
sS'manners'
p2726
I3369
sS'whatever'
p2727
I437
sS'coincidence'
p2728
I2745
sS"hadn't"
p2729
I991
sS'simply'
p2730
I1429
sS'likes'
p2731
I904
sS'church'
p2732
I1030
sS'vessel'
p2733
I2799
sS'sammy'
p2734
I4037
sS'expensive'
p2735
I2252
sS'belt'
p2736
I2924
sS'wes'
p2737
I3055
sS'worthless'
p2738
I3189
sS'devil'
p2739
I1595
sS'cream'
p2740
I1942
sS'raise'
p2741
I1358
sS'create'
p2742
I2427
sS'political'
p2743
I2466
sS'due'
p2744
I1407
sS'mikey'
p2745
I3082
sS'appears'
p2746
I2688
sS'hitting'
p2747
I3032
sS'whom'
p2748
I1688
sS'secret'
p2749
I732
sS'dropping'
p2750
I4029
sS'damn'
p2751
I368
sS'las'
p2752
I3662
sS'threaten'
p2753
I3500
sS'territory'
p2754
I3921
sS'meeting'
p2755
I739
sS'whoa'
p2756
I1459
sS'empty'
p2757
I1398
sS'walter'
p2758
I763
sS'firm'
p2759
I2317
sS'sweetheart'
p2760
I1355
sS'lived'
p2761
I965
sS'flight'
p2762
I1460
sS'champion'
p2763
I3243
sS'gay'
p2764
I2168
sS'sending'
p2765
I1976
sS'fire'
p2766
I545
sS"what's"
p2767
I112
sS'crack'
p2768
I1932
sS'gas'
p2769
I1316
sS'else'
p2770
I243
sS'anthony'
p2771
I3635
sS'gal'
p2772
I3363
sS'lives'
p2773
I644
sS'demand'
p2774
I3629
sS'receive'
p2775
I3712
sS"what'd"
p2776
I752
sS'highest'
p2777
I3778
sS'stolen'
p2778
I2112
sS'look'
p2779
I100
sS'juice'
p2780
I2874
sS'solid'
p2781
I2222
sS'straight'
p2782
I653
sS'bill'
p2783
I617
sS'budget'
p2784
I3774
sS'governor'
p2785
I3000
sS'rope'
p2786
I2492
sS'healthy'
p2787
I2504
sS'while'
p2788
I331
sS'ought'
p2789
I870
sS'behavior'
p2790
I2299
sS'fun'
p2791
I598
sS'kissing'
p2792
I3334
sS'mitchell'
p2793
I1945
sS'guide'
p2794
I3625
sS'pack'
p2795
I1591
sS'swim'
p2796
I2093
sS'casino'
p2797
I2549
sS'hoping'
p2798
I1531
sS'century'
p2799
I1898
sS'cents'
p2800
I2443
sS'wherever'
p2801
I2426
sS'von'
p2802
I3116
sS'rip'
p2803
I3145
sS'eve'
p2804
I1325
sS'itself'
p2805
I1581
sS'owes'
p2806
I3152
sS'ready'
p2807
I426
sS'rig'
p2808
I3671
sS'rid'
p2809
I1295
sS'chase'
p2810
I2680
sS'funny'
p2811
I489
sS'santos'
p2812
I3863
sS'italy'
p2813
I3342
sS'shirt'
p2814
I2028
sS'anymore'
p2815
I495
sS'grant'
p2816
I1682
sS"givin'"
p2817
I3749
sS'barnes'
p2818
I2702
sS'belong'
p2819
I1583
sS'rules'
p2820
I1236
sS'grand'
p2821
I945
sS'9'
p2822
I3588
sS'advise'
p2823
I3609
sS'dozen'
p2824
I1863
sS"money's"
p2825
I3436
sS'higher'
p2826
I2567
sS'used'
p2827
I297
sS'lawyers'
p2828
I2538
sS'mountain'
p2829
I2326
sS'keys'
p2830
I1393
sS'assignment'
p2831
I2713
sS'yesterday'
p2832
I747
sS'alert'
p2833
I3699
sS'moment'
p2834
I622
sS'000'
p2835
I1519
sS'moving'
p2836
I821
sS'purpose'
p2837
I1697
sS"might've"
p2838
I3755
sS'bob'
p2839
I794
sS'plate'
p2840
I2837
sS'dark'
p2841
I738
sS'lower'
p2842
I2673
sS'task'
p2843
I3727
sS'barry'
p2844
I2847
sS'older'
p2845
I1616
sS"dad's"
p2846
I2139
sS'spent'
p2847
I1122
sS'obviously'
p2848
I1290
sS'underwear'
p2849
I3312
sS'person'
p2850
I488
sS'cheer'
p2851
I3527
sS'edge'
p2852
I2300
sS'temperature'
p2853
I4084
sS'y'
p2854
I1843
sS'doyle'
p2855
I2666
sS'meanwhile'
p2856
I3838
sS'spend'
p2857
I936
sS'ambassador'
p2858
I3120
sS'mom'
p2859
I415
sS'lester'
p2860
I2695
sS'shape'
p2861
I1998
sS'questions'
p2862
I681
sS'world'
p2863
I284
sS'retired'
p2864
I3154
sS'couch'
p2865
I3587
sS'prince'
p2866
I2347
sS'lebowski'
p2867
I3637
sS'saunders'
p2868
I3405
sS'letting'
p2869
I1790
sS'cut'
p2870
I441
sS'cup'
p2871
I1434
sS'hated'
p2872
I1684
sS"men's"
p2873
I3992
sS'sire'
p2874
I2815
sS'kissed'
p2875
I3044
sS'international'
p2876
I3502
sS'source'
p2877
I2408
sS'internal'
p2878
I3319
sS'parents'
p2879
I709
sS'location'
p2880
I2842
sS'crying'
p2881
I1709
sS'snap'
p2882
I3576
sS'contrary'
p2883
I4039
sS'excited'
p2884
I1584
sS'surprised'
p2885
I1149
sS'useless'
p2886
I3368
sS'waves'
p2887
I3754
sS'customers'
p2888
I2851
sS'confession'
p2889
I2834
sS'victims'
p2890
I2286
sS'forces'
p2891
I3416
sS'emergency'
p2892
I1465
sS'big'
p2893
I207
sS'couple'
p2894
I469
sS'chapter'
p2895
I3937
sS'matters'
p2896
I1523
sS'game'
p2897
I535
sS'bit'
p2898
I496
sS'wings'
p2899
I2976
sS'helpful'
p2900
I4009
sS'knock'
p2901
I1162
sS'd'
p2902
I725
sS'signal'
p2903
I1818
sS'kennedy'
p2904
I2293
sS'ignore'
p2905
I2990
sS'collect'
p2906
I2527
sS'arthur'
p2907
I3441
sS'continue'
p2908
I1694
sS'popular'
p2909
I2523
sS'foolish'
p2910
I2627
sS'impulse'
p2911
I3649
sS'often'
p2912
I1221
sS'fucking'
p2913
I254
sS'goddamn'
p2914
I567
sS'some'
p2915
I91
sS'back'
p2916
I99
sS'understood'
p2917
I1868
sS'lips'
p2918
I2037
sS'mighty'
p2919
I2897
sS'candy'
p2920
I2600
sS'sight'
p2921
I1787
sS'mirror'
p2922
I2652
sS'lydia'
p2923
I2589
sS'curious'
p2924
I1344
sS'b>'
p2925
I3465
sS'classes'
p2926
I3763
sS'ourselves'
p2927
I1187
sS'delivered'
p2928
I3160
sS'scale'
p2929
I3454
sS'jewelry'
p2930
I3327
sS'dull'
p2931
I3605
sS'pet'
p2932
I3395
sS'singing'
p2933
I2400
sS'absolutely'
p2934
I724
sS'shall'
p2935
I629
sS'audience'
p2936
I2601
sS'per'
p2937
I1912
sS'religion'
p2938
I3813
sS'prom'
p2939
I2388
sS'quote'
p2940
I3510
sS'pee'
p2941
I2485
sS'anne'
p2942
I2519
sS'dating'
p2943
I2696
sS'anna'
p2944
I1985
sS't'
p2945
I953
sS'be'
p2946
I35
sS'sixteen'
p2947
I1960
sS'patient'
p2948
I1306
sS"fuckin'"
p2949
I464
sS'word'
p2950
I394
sS'it\x92s'
p2951
I1560
sS'martin'
p2952
I1637
sS'confidence'
p2953
I2159
sS'refused'
p2954
I4064
sS'step'
p2955
I1070
sS'nowhere'
p2956
I1537
sS'santa'
p2957
I2367
sS'chick'
p2958
I2085
sS'from'
p2959
I86
sS'by'
p2960
I134
sS'troops'
p2961
I3839
sS'faith'
p2962
I1406
sS'hidden'
p2963
I2104
sS'anything'
p2964
I144
sS'cigarette'
p2965
I1983
sS'firing'
p2966
I3428
sS'truck'
p2967
I1037
sS'aye'
p2968
I1252
sS'range'
p2969
I2284
sS'gallagher'
p2970
I3348
sS'wanna'
p2971
I385
sS'block'
p2972
I1972
sS'seeing'
p2973
I714
sS'jimmy'
p2974
I877
sS'letter'
p2975
I908
sS'garbage'
p2976
I2295
sS'terrorists'
p2977
I3882
sS'visit'
p2978
I1150
sS'into'
p2979
I162
sS'within'
p2980
I1336
sS'nonsense'
p2981
I1778
sS'services'
p2982
I2867
sS'appropriate'
p2983
I3165
sS'steven'
p2984
I3911
sS'lesson'
p2985
I2204
sS'sports'
p2986
I4093
sS'dwayne'
p2987
I3971
sS'smells'
p2988
I2203
sS'jews'
p2989
I2682
sS'impressed'
p2990
I2138
sS'sonny'
p2991
I1735
sS'u>'
p2992
I1462
sS'eleven'
p2993
I1416
sS'spending'
p2994
I2512
sS'mack'
p2995
I3604
sS'question'
p2996
I438
sS'fast'
p2997
I667
sS'marrying'
p2998
I3460
sS'editor'
p2999
I3459
sS'camera'
p3000
I1577
sS'chauncey'
p3001
I2493
sS"we're"
p3002
I117
sS'suit'
p3003
I968
sS'forward'
p3004
I1374
sS':'
p3005
I272
sS'opens'
p3006
I3580
sS'files'
p3007
I1808
sS'mountains'
p3008
I3202
sS'himself'
p3009
I596
sS'an'
p3010
I90
sS'invite'
p3011
I2084
sS'jewish'
p3012
I2701
sS'hoped'
p3013
I3719
sS'boys'
p3014
I602
sS'larry'
p3015
I1792
sS'reed'
p3016
I2141
sS'authority'
p3017
I2432
sS'russian'
p3018
I1755
sS'line'
p3019
I566
sS'junior'
p3020
I1546
sS'cia'
p3021
I3204
sS'skull'
p3022
I3769
sS'casablanca'
p3023
I3930
sS"hasn't"
p3024
I790
sS'us'
p3025
I106
sS'planet'
p3026
I1151
sS'un'
p3027
I2905
sS'uh'
p3028
I198
sS'planes'
p3029
I3148
sS'loving'
p3030
I3139
sS'called'
p3031
I306
sS'bell'
p3032
I2836
sS'possession'
p3033
I2852
sS'v'
p3034
I2109
sS'freak'
p3035
I1853
sS'metal'
p3036
I2663
sS'influence'
p3037
I3174
sS'package'
p3038
I3072
sS'single'
p3039
I1062
sS'warning'
p3040
I2638
sS'chat'
p3041
I2810
sS'graham'
p3042
I2804
sS'cotton'
p3043
I3196
sS'tone'
p3044
I3117
sS'blade'
p3045
I3387
sS'hint'
p3046
I3817
sS'nah'
p3047
I1268
sS'peace'
p3048
I1103
sS'nick'
p3049
I901
sS'nap'
p3050
I3972
sS'reputation'
p3051
I2179
sS'statement'
p3052
I2081
sS'naw'
p3053
I1497
sS'tits'
p3054
I2441
sS'department'
p3055
I1072
sS'manhattan'
p3056
I3732
sS'nice'
p3057
I247
sS"how're"
p3058
I3401
sS'raped'
p3059
I3456
sS'draw'
p3060
I1958
sS'kansas'
p3061
I2808
sS'problems'
p3062
I868
sS'prepared'
p3063
I1927
sS'helping'
p3064
I1614
sS"guy's"
p3065
I1118
sS'evan'
p3066
I3279
sS'reservation'
p3067
I3361
sS'charming'
p3068
I1963
sS'desert'
p3069
I1588
sS'lotta'
p3070
I2583
sS'ago'
p3071
I321
sS'lane'
p3072
I4051
sS'land'
p3073
I960
sS'e'
p3074
I1243
sS'practically'
p3075
I1996
sS'age'
p3076
I1000
sS'holes'
p3077
I2676
sS'walked'
p3078
I1188
sS'carrying'
p3079
I1596
sS"she's"
p3080
I154
sS'requires'
p3081
I3745
sS'having'
p3082
I431
sS'once'
p3083
I317
sS'sector'
p3084
I3523
sS'code'
p3085
I1257
sS'jason'
p3086
I1551
sS'rabbit'
p3087
I2725
sS'scratch'
p3088
I2973
sS'cynthia'
p3089
I3290
sS'results'
p3090
I3743
sS'steve'
p3091
I2096
sS'gang'
p3092
I2233
sS'hildy'
p3093
I1733
sS'go'
p3094
I65
sS'golf'
p3095
I3287
sS'psycho'
p3096
I2534
sS'kate'
p3097
I2958
sS'issues'
p3098
I3696
sS'seemed'
p3099
I1262
sS'bars'
p3100
I3052
sS'_undefined'
p3101
I0
sS'baron'
p3102
I1966
sS'peanut'
p3103
I4079
sS'concerned'
p3104
I1337
sS'wizard'
p3105
I3901
sS'young'
p3106
I451
sS'send'
p3107
I522
sS'suits'
p3108
I2414
sS'helps'
p3109
I2465
sS'suite'
p3110
I3650
sS'include'
p3111
I3939
sS'friendly'
p3112
I2183
sS'sent'
p3113
I595
sS'breathing'
p3114
I2467
sS'garden'
p3115
I1714
sS'bury'
p3116
I2550
sS'teresa'
p3117
I3495
sS'conditions'
p3118
I3957
sS'wave'
p3119
I3179
sS'wishes'
p3120
I3423
sS'putting'
p3121
I996
sS'telling'
p3122
I470
sS'yourselves'
p3123
I3626
sS'drinking'
p3124
I1369
sS'arrange'
p3125
I2989
sS'entire'
p3126
I1110
sS'magic'
p3127
I1586
sS'stiff'
p3128
I3665
sS'transmission'
p3129
I4018
sS'knight'
p3130
I3748
sS'marry'
p3131
I795
sS'shock'
p3132
I2111
sS'michael'
p3133
I846
sS"they've"
p3134
I684
sS'ryan'
p3135
I1977
sS'try'
p3136
I271
sS'threat'
p3137
I2518
sS'race'
p3138
I2490
sS'swallow'
p3139
I4033
sS'kit'
p3140
I3572
sS'barbara'
p3141
I2907
sS'challenge'
p3142
I3518
sS'joey'
p3143
I1645
sS'claudia'
p3144
I2833
sS'someday'
p3145
I2018
sS'clients'
p3146
I3227
sS"you'd"
p3147
I276
sS'bleeding'
p3148
I2659
sS'scientist'
p3149
I3345
sS'boots'
p3150
I2766
sS'jump'
p3151
I1302
sS'noise'
p3152
I2098
sS'video'
p3153
I1846
sS'booth'
p3154
I3323
sS'picked'
p3155
I918
sS'believes'
p3156
I2814
sS'odd'
p3157
I1928
sS'folk'
p3158
I4065
sS'victor'
p3159
I1986
sS'waitress'
p3160
I3721
sS'plays'
p3161
I1710
sS'power'
p3162
I588
sS'rate'
p3163
I2060
sS'chicago'
p3164
I1894
sS'giving'
p3165
I749
sS'colonel'
p3166
I1211
sS'squeeze'
p3167
I3916
sS'vampire'
p3168
I3581
sS"man's"
p3169
I922
sS'cell'
p3170
I1718
sS'paying'
p3171
I1423
sS'waiting'
p3172
I533
sS'indian'
p3173
I1832
sS'eating'
p3174
I1403
sS'capital'
p3175
I3163
sS'crossed'
p3176
I3246
sS';'
p3177
I286
sS'bird'
p3178
I1381
sS'exercise'
p3179
I2980
sS'body'
p3180
I551
sS'toast'
p3181
I3142
sS'led'
p3182
I2898
sS'lee'
p3183
I1291
sS'degree'
p3184
I2839
sS'leg'
p3185
I1377
sS'chrissake'
p3186
I3644
sS'pushing'
p3187
I3258
sS'commercial'
p3188
I3798
sS'punch'
p3189
I2310
sS'leo'
p3190
I1753
sS'believed'
p3191
I1888
sS'bachelor'
p3192
I3513
sS'let'
p3193
I141
sS'sink'
p3194
I4042
sS'others'
p3195
I736
sS'lex'
p3196
I3062
sS'sing'
p3197
I1222
sS'safer'
p3198
I3540
sS'invented'
p3199
I3442
sS'fifteen'
p3200
I820
sS'kidnapped'
p3201
I3429
sS'great'
p3202
I205
sS'talent'
p3203
I1964
sS'pressure'
p3204
I1712
sS'technical'
p3205
I3559
sS'involved'
p3206
I892
sS'30'
p3207
I1679
sS'leaving'
p3208
I642
sS'engine'
p3209
I3448
sS'paranoid'
p3210
I3133
sS"waitin'"
p3211
I3534
sS"weren't"
p3212
I603
sS'opinion'
p3213
I1412
sS'climb'
p3214
I2479
sS'makes'
p3215
I393
sS'honor'
p3216
I854
sS'you\x92re'
p3217
I1612
sS'sheila'
p3218
I2597
sS'tunnel'
p3219
I2748
sS'named'
p3220
I987
sS'apple'
p3221
I3085
sS'clark'
p3222
I1923
sS'danger'
p3223
I1385
sS'win'
p3224
I824
sS'manage'
p3225
I2192
sS'private'
p3226
I852
sS'names'
p3227
I1228
sS'motor'
p3228
I4044
sS'duck'
p3229
I3238
sS'patrol'
p3230
I4094
sS'route'
p3231
I2254
sS'cloud'
p3232
I3487
sS'standing'
p3233
I1043
sS'twombley'
p3234
I3843
sS'use'
p3235
I334
sS'fee'
p3236
I3476
sS'crap'
p3237
I1173
sS'stream'
p3238
I3978
sS'&'
p3239
I2474
sS'remains'
p3240
I3705
sS'illegal'
p3241
I2397
sS'hudson'
p3242
I3245
sS'next'
p3243
I320
sS'few'
p3244
I329
sS'doubt'
p3245
I935
sS'debbie'
p3246
I3053
sS'vehicle'
p3247
I3370
sS'frida'
p3248
I3821
sS'themselves'
p3249
I1585
sS'stage'
p3250
I2368
sS'touched'
p3251
I1995
sS'sort'
p3252
I521
sS'clever'
p3253
I1858
sS'babe'
p3254
I1847
sS'iris'
p3255
I4090
sS'started'
p3256
I569
sS'halloween'
p3257
I3902
sS'about'
p3258
I44
sS'confused'
p3259
I1914
sS'sore'
p3260
I2738
sS'train'
p3261
I1021
sS'ashamed'
p3262
I2271
sS'baby'
p3263
I343
sS'central'
p3264
I2175
sS'division'
p3265
I4023
sS'potential'
p3266
I3531
sS'women'
p3267
I552
sS'customer'
p3268
I3498
sS'escaped'
p3269
I2846
sS'account'
p3270
I1317
sS'balls'
p3271
I1698
sS'animals'
p3272
I1631
sS'salad'
p3273
I3417
sS'f'
p3274
I1410
sS'this'
p3275
I22
sS'ride'
p3276
I705
sS'sounded'
p3277
I2740
sS'frances'
p3278
I2678
sS'pour'
p3279
I3612
sS'anywhere'
p3280
I801
sS'obvious'
p3281
I1763
sS'thin'
p3282
I2470
sS'uses'
p3283
I3823
sS'of'
p3284
I14
sS'meet'
p3285
I353
sS'closing'
p3286
I2781
sS'proof'
p3287
I1383
sS'control'
p3288
I685
sS'violence'
p3289
I2988
sS'tap'
p3290
I3720
sS'bent'
p3291
I4070
sS'thirsty'
p3292
I3940
sS"sayin'"
p3293
I2362
sS'process'
p3294
I2363
sS'lock'
p3295
I1176
sS'tax'
p3296
I2775
sS'pieces'
p3297
I1780
sS'high'
p3298
I515
sS'professor'
p3299
I1394
sS'tag'
p3300
I3493
sS'pulling'
p3301
I2102
sS'something'
p3302
I111
sS'slip'
p3303
I2697
sS'bones'
p3304
I1719
sS'standard'
p3305
I2412
sS'serial'
p3306
I2946
sS'rape'
p3307
I3159
sS'sir'
p3308
I150
sS'united'
p3309
I1768
sS'sit'
p3310
I446
sS'six'
p3311
I384
sS'poetry'
p3312
I3552
sS'delay'
p3313
I3952
sS'brian'
p3314
I2449
sS'forest'
p3315
I3328
sS'animal'
p3316
I1191
sS'sid'
p3317
I1198
sS'instead'
p3318
I969
sS'panic'
p3319
I2402
sS'sin'
p3320
I2494
sS'stock'
p3321
I2034
sS'profile'
p3322
I3231
sS'buildings'
p3323
I3597
sS'blocks'
p3324
I3466
sS'attend'
p3325
I4080
sS'farm'
p3326
I1648
sS'locked'
p3327
I1288
sS'testimony'
p3328
I2985
sS'tied'
p3329
I2296
sS'bothered'
p3330
I2876
sS'ow'
p3331
I4007
sS'pigs'
p3332
I3449
sS"somethin'"
p3333
I952
sS'hose'
p3334
I3669
sS'fits'
p3335
I3320
sS'coast'
p3336
I2335
sS'marylin'
p3337
I3144
sS'realized'
p3338
I2224
sS'owns'
p3339
I2505
sS'chasing'
p3340
I2525
sS'famous'
p3341
I1439
sS'light'
p3342
I628
sS'counter'
p3343
I3756
sS'lines'
p3344
I1661
sS'chief'
p3345
I849
sS'courage'
p3346
I2735
sS'honestly'
p3347
I2153
sS'allow'
p3348
I1788
sS'crawling'
p3349
I3725
sS'jeez'
p3350
I2613
sS'martini'
p3351
I3600
sS'houston'
p3352
I3982
sS'holds'
p3353
I2596
sS'move'
p3354
I436
sS'clarice'
p3355
I3928
sS"won't"
p3356
I181
sS'looks'
p3357
I388
sS'mentioned'
p3358
I1669
sS'bunch'
p3359
I1033
sS'perfect'
p3360
I703
sS'1'
p3361
I2074
sS'la'
p3362
I1319
sS'chosen'
p3363
I3206
sS'ships'
p3364
I2934
sS'winning'
p3365
I2855
sS'meantime'
p3366
I3175
sS'willing'
p3367
I1362
sS'marsh'
p3368
I2714
sS'choose'
p3369
I1905
sS'shy'
p3370
I4001
sS'orange'
p3371
I2794
sS'covered'
p3372
I1959
sS'bye'
p3373
I984
sS'fourth'
p3374
I2409
sS'dad'
p3375
I357
sS'crash'
p3376
I1589
sS'pure'
p3377
I2165
sS'catherine'
p3378
I2616
sS'dan'
p3379
I3816
sS'practice'
p3380
I1598
sS'bat'
p3381
I2091
sS'flew'
p3382
I3846
sS'connected'
p3383
I3339
sS'mention'
p3384
I1124
sS'cutting'
p3385
I2660
sS'snake'
p3386
I2345
sS'kiss'
p3387
I887
sS'hands'
p3388
I576
sS'front'
p3389
I615
sS'cage'
p3390
I3013
sS'day'
p3391
I196
sS'worlds'
p3392
I3657
sS'thrill'
p3393
I4031
sS"night's"
p3394
I3828
sS'warned'
p3395
I2749
sS'university'
p3396
I2624
sS'lifetime'
p3397
I3198
sS'billy'
p3398
I1179
sS'betty'
p3399
I1203
sS'truth'
p3400
I494
sS'interview'
p3401
I2031
sS'edie'
p3402
I3382
sS'bills'
p3403
I2590
sS'shaking'
p3404
I3655
sS'glasses'
p3405
I2092
sS'baxter'
p3406
I2686
sS'female'
p3407
I2162
sS'doing'
p3408
I152
sS'adventure'
p3409
I3432
sS'dreaming'
p3410
I2380
sS'product'
p3411
I2925
sS'related'
p3412
I3043
sS'\x97\x97'
p3413
I2561
sS'society'
p3414
I2110
sS'books'
p3415
I919
sS'mulder'
p3416
I3907
sS'thirteen'
p3417
I2734
sS'our'
p3418
I136
sS'bay'
p3419
I1845
sS'sexual'
p3420
I2024
sS'special'
p3421
I659
sS'out'
p3422
I49
sS'matt'
p3423
I3446
sS"'"
p3424
I853
sS'bag'
p3425
I948
sS"needn't"
p3426
I3676
sS'confess'
p3427
I2977
sS'yup'
p3428
I2316
sS'ricky'
p3429
I2331
sS'mate'
p3430
I3136
sS'cause'
p3431
I645
sS'red'
p3432
I711
sS"one's"
p3433
I1036
sS'afford'
p3434
I1421
sS'shut'
p3435
I390
sS'philosophy'
p3436
I3947
sS'jessica'
p3437
I2653
sS"doin'"
p3438
I741
sS'frank'
p3439
I604
sS'jeff'
p3440
I1258
sS'fourteen'
p3441
I2067
sS'completely'
p3442
I881
sS'jill'
p3443
I2894
sS'surely'
p3444
I1633
sS'york'
p3445
I631
sS'latest'
p3446
I3900
sS'anyhow'
p3447
I2500
sS'princess'
p3448
I2156
sS'scary'
p3449
I2125
sS'comrade'
p3450
I3046
sS'backwards'
p3451
I3782
sS'yard'
p3452
I2306
sS'prepare'
p3453
I2689
sS'g'
p3454
I1532
sS'concerns'
p3455
I3890
sS'could'
p3456
I103
sS'florida'
p3457
I2421
sS'times'
p3458
I424
sS'conversation'
p3459
I1502
sS'chicken'
p3460
I1432
sS'stacy'
p3461
I3968
sS'ears'
p3462
I1783
sS'austin'
p3463
I2956
sS'scare'
p3464
I1501
sS'south'
p3465
I1139
sS'designed'
p3466
I3311
sS'finest'
p3467
I3792
sS'blown'
p3468
I2784
sS'powerful'
p3469
I1856
sS'scene'
p3470
I1330
sS'owned'
p3471
I3592
sS'jesus'
p3472
I367
sS'embarrassed'
p3473
I3098
sS'phil'
p3474
I2279
sS'bitch'
p3475
I650
sS'boats'
p3476
I3191
sS'owner'
p3477
I3545
sS'reached'
p3478
I3232
sS'blows'
p3479
I3593
sS'noticed'
p3480
I1364
sS'quality'
p3481
I3666
sS'disaster'
p3482
I3435
sS"you're"
p3483
I45
sS'margo'
p3484
I2657
sS'ancient'
p3485
I2909
sS'monkey'
p3486
I2603
sS'los'
p3487
I2352
sS'guys'
p3488
I293
sS'seat'
p3489
I1539
sS'system'
p3490
I866
sS'their'
p3491
I223
sS'attack'
p3492
I986
sS'sergeant'
p3493
I1729
sS'perfectly'
p3494
I1401
sS"god's"
p3495
I1147
sS'cabin'
p3496
I2508
sS'interests'
p3497
I2705
sS'disks'
p3498
I4030
sS'stomach'
p3499
I1837
sS'stars'
p3500
I1662
sS'viktor'
p3501
I2611
sS'academy'
p3502
I3315
sS'explanation'
p3503
I2502
sS'exactly'
p3504
I354
sS'grandpa'
p3505
I3867
sS"that'll"
p3506
I1366
sS'herself'
p3507
I1327
sS'institution'
p3508
I3672
sS'neck'
p3509
I1264
sS'steel'
p3510
I3063
sS'loved'
p3511
I768
sS'ben'
p3512
I838
sS'boring'
p3513
I1815
sS'bother'
p3514
I920
sS'beg'
p3515
I1299
sS'bed'
p3516
I523
sS'tommy'
p3517
I1253
sS'claim'
p3518
I2298
sS'patients'
p3519
I2573
sS'individual'
p3520
I3747
sS'loves'
p3521
I1106
sS'lover'
p3522
I2662
sS'sec'
p3523
I3304
sS'amount'
p3524
I2278
sS'bet'
p3525
I499
sS'drunk'
p3526
I872
sS'false'
p3527
I2838
sS"m'sieu"
p3528
I3038
sS'comfortable'
p3529
I1524
sS'tonight'
p3530
I291
sS'gentle'
p3531
I3645
sS'have'
p3532
I27
sS'need'
p3533
I127
sS'yuh'
p3534
I3996
sS'apparently'
p3535
I1717
sS'clearly'
p3536
I2059
sS'screw'
p3537
I1505
sS'bastard'
p3538
I939
sS'afraid'
p3539
I351
sS'angle'
p3540
I3078
sS'dallas'
p3541
I2918
sS'studying'
p3542
I3632
sS'agency'
p3543
I2242
sS'able'
p3544
I610
sS'claire'
p3545
I2105
sS'instance'
p3546
I2868
sS'relatives'
p3547
I3886
sS'sh'
p3548
I3853
sS'which'
p3549
I299
sS'jail'
p3550
I946
sS'asshole'
p3551
I911
sS'juliet'
p3552
I3212
sS'lily'
p3553
I3796
sS'brand'
p3554
I2723
sS'goddamned'
p3555
I2515
sS'unless'
p3556
I742
sS'kelly'
p3557
I2214
sS'combat'
p3558
I3601
sS"where'd"
p3559
I1115
sS'who'
p3560
I79
sS'doug'
p3561
I2987
sS"time's"
p3562
I3738
sS"where's"
p3563
I397
sS'satan'
p3564
I3959
sS'eight'
p3565
I543
sS'device'
p3566
I2827
sS'capacity'
p3567
I4081
sS'sally'
p3568
I1957
sS'why'
p3569
I67
sS"husband's"
p3570
I3358
sS'deny'
p3571
I2501
sS'joseph'
p3572
I2615
sS'nazi'
p3573
I3985
sS'visiting'
p3574
I3575
sS'upset'
p3575
I905
sS'disease'
p3576
I1795
sS'face'
p3577
I416
sS'looked'
p3578
I665
sS"you'll"
p3579
I206
sS'construction'
p3580
I3392
sS'absurd'
p3581
I3948
sS'movie'
p3582
I651
sS'wounded'
p3583
I3143
sS'skinny'
p3584
I3567
sS'painting'
p3585
I2878
sS'arrangements'
p3586
I3935
sS'fact'
p3587
I549
sS'marge'
p3588
I2773
sS'son'
p3589
I338
sS'affair'
p3590
I2230
sS'parker'
p3591
I2875
sS'chances'
p3592
I1939
sS'rings'
p3593
I3643
sS'agreed'
p3594
I1968
sS'charles'
p3595
I1197
sS'assholes'
p3596
I2828
sS'anyway'
p3597
I365
sS'unbelievable'
p3598
I3100
sS'bring'
p3599
I392
sS'planning'
p3600
I1594
sS'i\x92m'
p3601
I1457
sS'bedroom'
p3602
I1917
sS'dorothy'
p3603
I1576
sS'soldiers'
p3604
I2297
sS'fear'
p3605
I1016
sS'filthy'
p3606
I3039
sS'pleased'
p3607
I2072
sS'staff'
p3608
I1798
sS'partners'
p3609
I2235
sS'envy'
p3610
I4075
sS'ear'
p3611
I1608
sS'based'
p3612
I2741
sS'knowledge'
p3613
I2184
sS'sheriff'
p3614
I1260
sS'earned'
p3615
I3870
sS'downstairs'
p3616
I1949
sS'winner'
p3617
I3871
sS"jus'"
p3618
I3532
sS'should'
p3619
I142
sS'score'
p3620
I2137
sS'tape'
p3621
I957
sS'lemme'
p3622
I1764
sS'jabez'
p3623
I2163
sS'fuel'
p3624
I3034
sS'riding'
p3625
I1961
sS'piano'
p3626
I2181
sS'handsome'
p3627
I2606
sS'local'
p3628
I1829
sS'pirate'
p3629
I3186
sS'hope'
p3630
I374
sS'meant'
p3631
I783
sS'jacqueline'
p3632
I2957
sS'handle'
p3633
I755
sS'sweetie'
p3634
I2569
sS'listened'
p3635
I3603
sS'means'
p3636
I510
sS'beat'
p3637
I737
sS'familiar'
p3638
I1527
sS'dope'
p3639
I2704
sS'lucky'
p3640
I656
sS'bear'
p3641
I1481
sS'joint'
p3642
I1882
sS'community'
p3643
I2614
sS'ones'
p3644
I839
sS'words'
p3645
I657
sS'drawn'
p3646
I4054
sS'timing'
p3647
I3693
sS'kong'
p3648
I3742
sS'gray'
p3649
I2981
sS'glory'
p3650
I3084
sS'trucks'
p3651
I3734
sS'brain'
p3652
I909
sS'h'
p3653
I1740
sS'married'
p3654
I417
sS'calling'
p3655
I655
sS"somebody's"
p3656
I1655
sS'stuff'
p3657
I339
sS'she'
p3658
I71
sS'wish'
p3659
I447
sS'shh'
p3660
I3636
sS'including'
p3661
I2354
sS'grab'
p3662
I1650
sS'fixed'
p3663
I1875
sS'view'
p3664
I1473
sS'europe'
p3665
I2209
sS'official'
p3666
I2287
sS'exists'
p3667
I3421
sS'national'
p3668
I1706
sS'humans'
p3669
I4026
sS'freeze'
p3670
I3408
sS'computer'
p3671
I1028
sS'powder'
p3672
I3482
sS'desperate'
p3673
I2291
sS'violet'
p3674
I3878
sS'drawing'
p3675
I3646
sS'packed'
p3676
I3036
sS'closer'
p3677
I1744
sS'wire'
p3678
I1809
sS'destiny'
p3679
I2302
sS'closet'
p3680
I3087
sS'nuclear'
p3681
I2247
sS'nightmare'
p3682
I1944
sS'cruel'
p3683
I3219
sS'tend'
p3684
I3822
sS'favor'
p3685
I865
sS'state'
p3686
I708
sS'rowan'
p3687
I3877
sS'closed'
p3688
I1235
sS'horrible'
p3689
I1563
sS'progress'
p3690
I2475
sS'neither'
p3691
I966
sS"wife's"
p3692
I2012
sS'bought'
p3693
I940
sS'ends'
p3694
I1880
sS'janet'
p3695
I2517
sS'opening'
p3696
I1999
sS'joy'
p3697
I3061
sS'deliver'
p3698
I2073
sS'interfere'
p3699
I4056
sS'kicking'
p3700
I4057
sS'job'
p3701
I270
sS'joe'
p3702
I748
sS'key'
p3703
I938
sS'group'
p3704
I1256
sS'precious'
p3705
I3002
sS'wh'
p3706
I3404
sS'jon'
p3707
I2840
sS'david'
p3708
I769
sS'marty'
p3709
I1509
sS'hits'
p3710
I2728
sS'figured'
p3711
I791
sS'limits'
p3712
I3349
sS'career'
p3713
I1454
sS'joke'
p3714
I1001
sS'taking'
p3715
I457
sS"he's"
p3716
I85
sS'drug'
p3717
I1461
sS'assure'
p3718
I2486
sS'admit'
p3719
I1079
sS'busted'
p3720
I1623
sS'figures'
p3721
I2899
sS'grail'
p3722
I3265
sS'passing'
p3723
I2071
sS'kinds'
p3724
I2253
sS'jersey'
p3725
I3280
sS'otherwise'
p3726
I1447
sS'photographs'
p3727
I3925
sS'co'
p3728
I3305
sS"'n"
p3729
I4013
sS'agents'
p3730
I2932
sS'toilet'
p3731
I2622
sS'wall'
p3732
I1136
sS'daniels'
p3733
I3841
sS'tuesday'
p3734
I2384
sS'walk'
p3735
I484
sS'walt'
p3736
I3963
sS'businessman'
p3737
I3840
sS'laugh'
p3738
I1270
sS'cousin'
p3739
I1609
sS'geez'
p3740
I3314
sS'respect'
p3741
I893
sS'cole'
p3742
I1877
sS'neat'
p3743
I3070
sS'quit'
p3744
I770
sS'maid'
p3745
I3003
sS"it's"
p3746
I37
sS'cent'
p3747
I2625
sS'tyler'
p3748
I3402
sS'slowly'
p3749
I3009
sS'yah'
p3750
I1101
sS'ah'
p3751
I508
sS'poet'
p3752
I3872
sS'degrees'
p3753
I2823
sS'waste'
p3754
I1318
sS"it'd"
p3755
I1746
sS'faced'
p3756
I3960
sS'mike'
p3757
I1092
sS'describe'
p3758
I2483
sS'league'
p3759
I2423
sS'am'
p3760
I143
sS'vince'
p3761
I2908
sS'farmer'
p3762
I3273
sS'sales'
p3763
I2670
sS'hmm'
p3764
I1354
sS'finished'
p3765
I928
sS'mail'
p3766
I2080
sS'smoking'
p3767
I1857
sS'general'
p3768
I710
sS'present'
p3769
I1039
sS'homer'
p3770
I3112
sS'criminal'
p3771
I1615
sS'cow'
p3772
I3193
sS'imagination'
p3773
I3113
sS'plain'
p3774
I2314
sS'harder'
p3775
I2325
sS'beats'
p3776
I3229
sS'value'
p3777
I2289
sS'choices'
p3778
I3224
sS'will'
p3779
I95
sS'secrets'
p3780
I2353
sS'country'
p3781
I582
sS'wild'
p3782
I1387
sS'balance'
p3783
I3633
sS"nobody's"
p3784
I1231
sS'at'
p3785
I61
sS'supply'
p3786
I3096
sS'aw'
p3787
I1201
sS'almost'
p3788
I528
sS'evelyn'
p3789
I3583
sS'site'
p3790
I3953
sS'surface'
p3791
I2861
sS'helped'
p3792
I1552
sS'simone'
p3793
I2135
sS'inform'
p3794
I3893
sS'politics'
p3795
I2764
sS'partner'
p3796
I1172
sS'inspector'
p3797
I2433
sS'sits'
p3798
I3908
sS'whore'
p3799
I2403
sS'lunatic'
p3800
I3244
sS'shooting'
p3801
I1391
sS'perhaps'
p3802
I568
sS'began'
p3803
I3302
sS'radiation'
p3804
I3316
sS'cross'
p3805
I1169
sS'eric'
p3806
I2574
sS'member'
p3807
I2370
sS'wicked'
p3808
I3750
sS'strange'
p3809
I777
sS'homicide'
p3810
I2729
sS'digging'
p3811
I3613
sS'underground'
p3812
I2742
sS'party'
p3813
I525
sS'gets'
p3814
I459
sS'solution'
p3815
I3069
sS'difficult'
p3816
I1168
sS'ball'
p3817
I1064
sS'slave'
p3818
I3739
sS'selfish'
p3819
I3653
sS'flesh'
p3820
I2460
sS'drink'
p3821
I432
sS'upon'
p3822
I1891
sS'effect'
p3823
I2473
sS'fucker'
p3824
I2722
sS'romeo'
p3825
I2584
sS'beast'
p3826
I3071
sS'introduce'
p3827
I2303
sS'student'
p3828
I2238
sS'fucked'
p3829
I782
sS'collar'
p3830
I3475
sS'destruction'
p3831
I3677
sS'argue'
p3832
I2693
sS'off'
p3833
I135
sS'center'
p3834
I1879
sS'samuel'
p3835
I3869
sS'records'
p3836
I1081
sS'i'
p3837
I7
sS'shotgun'
p3838
I3775
sS'weapon'
p3839
I1866
sS'contest'
p3840
I3529
sS'well'
p3841
I60
sS'fighting'
p3842
I1153
sS'thought'
p3843
I149
sS'command'
p3844
I1280
sS'english'
p3845
I885
sS'position'
p3846
I1156
sS'rush'
p3847
I2280
sS'usual'
p3848
I1605
sS'less'
p3849
I765
sS'moments'
p3850
I3153
sS"should've"
p3851
I1954
sS'executive'
p3852
I3407
sS'flies'
p3853
I3201
sS'mistaken'
p3854
I3324
sS'clinic'
p3855
I3489
sS'mistakes'
p3856
I2881
sS'rooms'
p3857
I2050
sS'protecting'
p3858
I2820
sS'paul'
p3859
I810
sS'graduate'
p3860
I3610
sS'rescue'
p3861
I2690
sS'mysterious'
p3862
I3859
sS'generous'
p3863
I3943
sS'nicky'
p3864
I2173
sS'field'
p3865
I1185
sS'drive'
p3866
I555
sS'smith'
p3867
I1526
sS'lake'
p3868
I1700
sS'killed'
p3869
I298
sS'drew'
p3870
I2645
sS'arrest'
p3871
I1293
sS'add'
p3872
I2292
sS'other'
p3873
I176
sS'attractive'
p3874
I2124
sS'wet'
p3875
I1910
sS'morgue'
p3876
I3933
sS'smart'
p3877
I740
sS'warrant'
p3878
I2901
sS'acted'
p3879
I3579
sS'kick'
p3880
I1285
sS'details'
p3881
I2134
sS'tests'
p3882
I2553
sS'depends'
p3883
I1534
sS'government'
p3884
I1104
sS'checking'
p3885
I2218
sS"who's"
p3886
I332
sS'haul'
p3887
I3917
sS'five'
p3888
I264
sS'know'
p3889
I26
sS'presume'
p3890
I4008
sS'desk'
p3891
I1431
sS'press'
p3892
I1232
sS'immediately'
p3893
I1738
sS'knox'
p3894
I3927
sS"who'd"
p3895
I2431
sS'fools'
p3896
I4089
sS'review'
p3897
I3722
sS'loss'
p3898
I2595
sS'lincoln'
p3899
I3584
sS'incredibly'
p3900
I4066
sS'necessary'
p3901
I1656
sS'like'
p3902
I42
sS'lost'
p3903
I405
sS'miami'
p3904
I2559
sS'ring'
p3905
I958
sS'loser'
p3906
I2177
sS'units'
p3907
I3399
sS'garage'
p3908
I1918
sS'lawson'
p3909
I2877
sS'lose'
p3910
I605
sS'become'
p3911
I815
sS'works'
p3912
I704
sS'soft'
p3913
I1743
sS'page'
p3914
I1545
sS'italian'
p3915
I1970
sS"why's"
p3916
I2656
sS'because'
p3917
I147
sS'scared'
p3918
I589
sS'village'
p3919
I2566
sS'thief'
p3920
I2070
sS'alive'
p3921
I547
sS'hair'
p3922
I680
sS'francisco'
p3923
I2330
sS"why'd"
p3924
I1495
sS'proper'
p3925
I2017
sS'home'
p3926
I208
sS'empire'
p3927
I2476
sS'peter'
p3928
I860
sS'scares'
p3929
I4034
sS'transport'
p3930
I3686
sS'happens'
p3931
I592
sS'preysing'
p3932
I3783
sS'lead'
p3933
I1098
sS"gettin'"
p3934
I1266
sS'broad'
p3935
I2862
sS'avoid'
p3936
I2586
sS'shelter'
p3937
I3844
sS'does'
p3938
I178
sS'passion'
p3939
I2970
sS'wendy'
p3940
I2863
sS'screwed'
p3941
I2307
sS'leader'
p3942
I2835
sS'?'
p3943
I6
sS'trap'
p3944
I1921
sS'ripped'
p3945
I3330
sS"y'know"
p3946
I1132
sS'murderer'
p3947
I2065
sS'schedule'
p3948
I2746
sS'bowling'
p3949
I2480
sS'slut'
p3950
I3494
sS'lieutenant'
p3951
I1077
sS'murdered'
p3952
I1259
sS'benefit'
p3953
I3714
sS'although'
p3954
I2355
sS'worthy'
p3955
I3704
sS'amy'
p3956
I1953
sS'r'
p3957
I1360
sS'hiding'
p3958
I1347
sS'jam'
p3959
I2522
sS'sister'
p3960
I636
sS'rare'
p3961
I2687
sS'carried'
p3962
I2568
sS'getting'
p3963
I259
sS'column'
p3964
I3642
sS'freedom'
p3965
I2273
sS'madame'
p3966
I1550
sS'angeles'
p3967
I2817
sS'swear'
p3968
I735
sS'sweat'
p3969
I2429
sS'rug'
p3970
I3551
sS'tongue'
p3971
I2107
sS'emperor'
p3972
I2334
sS'swimming'
p3973
I2892
sS'own'
p3974
I265
sS'letters'
p3975
I1483
sS'glenn'
p3976
I2959
sS'owe'
p3977
I956
sS'pussy'
p3978
I2311
sS'terry'
p3979
I2200
sS'washington'
p3980
I1343
sS'socks'
p3981
I3891
sS'guard'
p3982
I1420
sS'weather'
p3983
I1561
sS'promise'
p3984
I608
sS'tiny'
p3985
I2578
sS'oughta'
p3986
I1936
sS'ninotchka'
p3987
I3514
sS'quickly'
p3988
I1651
sS'fired'
p3989
I1107
sS'clown'
p3990
I3562
sS'van'
p3991
I1245
sS'francis'
p3992
I3730
sS'transfer'
p3993
I3093
sS'museum'
p3994
I2359
sS'*'
p3995
I342
sS'kidding'
p3996
I643
sS'spread'
p3997
I3128
sS'trigger'
p3998
I3026
sS'cheated'
p3999
I4072
sS'biggest'
p4000
I1708
sS'cliff'
p4001
I4011
sS'naturally'
p4002
I1721
sS'ghost'
p4003
I2392
sS'buy'
p4004
I518
sS'north'
p4005
I1254
sS"i've"
p4006
I108
sS'bus'
p4007
I1065
sS'coke'
p4008
I2437
sS'but'
p4009
I38
sS'caitlin'
p4010
I3260
sS'delivery'
p4011
I2844
sS'reminds'
p4012
I3373
sS'hi'
p4013
I476
sS'ho'
p4014
I1992
sS'liquor'
p4015
I3396
sS'hm'
p4016
I2185
sS'ha'
p4017
I859
sS'lloyd'
p4018
I1467
sS'eat'
p4019
I473
sS'bud'
p4020
I1642
sS'he'
p4021
I34
sS'count'
p4022
I925
sS'made'
p4023
I238
sS'wise'
p4024
I1734
sS'marquis'
p4025
I3701
sS'places'
p4026
I1226
sS'whether'
p4027
I1164
sS'dangerous'
p4028
I884
sS'cells'
p4029
I3451
sS'j'
p4030
I1097
sS'smooth'
p4031
I2969
sS'flip'
p4032
I3990
sS'signed'
p4033
I2055
sS"kiddin'"
p4034
I3658
sS'record'
p4035
I828
sS'below'
p4036
I2488
sS'convince'
p4037
I2796
sS'stories'
p4038
I1271
sS'woke'
p4039
I2079
sS'cake'
p4040
I2366
sS'problem'
p4041
I352
sS'piece'
p4042
I664
sS'minutes'
p4043
I401
sS'odds'
p4044
I2587
sS'irish'
p4045
I3561
sS'jenny'
p4046
I3079
sS'pin'
p4047
I2856
sS'int'
p4048
I3321
sS'recognize'
p4049
I1521
sS'penny'
p4050
I2637
sS'pie'
p4051
I2453
sS'pig'
p4052
I1575
sS'erin'
p4053
I3563
sS'inn'
p4054
I3132
sS'goodness'
p4055
I2726
sS'NULL'
p4056
I2
sS'happen'
p4057
I410
sS'jesse'
p4058
I2277
sS'diego'
p4059
I2312
sS'spell'
p4060
I2801
sS'rumors'
p4061
I3760
sS'loud'
p4062
I1828
sS'incredible'
p4063
I1761
sS'dressed'
p4064
I1600
sS'percent'
p4065
I1296
sS'detail'
p4066
I2926
sS'lately'
p4067
I1279
sS'book'
p4068
I538
sS'witness'
p4069
I1329
sS'sick'
p4070
I504
sS'obsessed'
p4071
I4078
sS'mass'
p4072
I3005
sS'er'
p4073
I1308
sS'junk'
p4074
I3114
sS'repeat'
p4075
I2082
sS'star'
p4076
I1073
sS'monday'
p4077
I1892
sS'class'
p4078
I745
sS'june'
p4079
I3376
sS'shown'
p4080
I3066
sS'stay'
p4081
I257
sS'chance'
p4082
I454
sS'kinda'
p4083
I826
sS'stan'
p4084
I3269
sS'friends'
p4085
I375
sS'tan'
p4086
I3420
sS'dewey'
p4087
I3325
sS'rights'
p4088
I2166
sS'mozart'
p4089
I2411
sS"mornin'"
p4090
I3384
sS'rule'
p4091
I1488
sS'forgetting'
p4092
I3766
sS'vulcan'
p4093
I3271
sS'elaine'
p4094
I1704
sS'understand'
p4095
I225
sS'parole'
p4096
I3458
sS'defend'
p4097
I3207
sa(lp4098
g3101
ag2584
ag4056
ag673
ag288
ag2047
ag3943
ag3837
ag779
ag2101
ag476
ag2318
ag724
ag1525
ag3284
ag2288
ag1495
ag2169
ag729
ag1098
ag722
ag2338
ag3275
ag547
ag116
ag874
ag3889
ag3532
ag1963
ag1372
ag195
ag1812
ag612
ag950
ag4021
ag2946
ag1933
ag3746
ag4009
ag2659
ag1997
ag787
ag3902
ag2077
ag3258
ag3483
ag1623
ag734
ag1318
ag3422
ag90
ag310
ag2632
ag1655
ag2334
ag203
ag362
ag1451
ag1246
ag1344
ag3841
ag3785
ag312
ag1973
ag852
ag3094
ag1373
ag3569
ag1117
ag1968
ag2485
ag3658
ag1618
ag798
ag1937
ag1394
ag2656
ag1770
ag2027
ag3560
ag999
ag159
ag2149
ag2616
ag1702
ag3716
ag2959
ag1688
ag672
ag1052
ag3010
ag2915
ag1519
ag1535
ag1259
ag3779
ag143
ag1952
ag296
ag2916
ag2779
ag1650
ag297
ag3456
ag330
ag1305
ag3025
ag1551
ag4006
ag89
ag809
ag3302
ag2767
ag422
ag946
ag2419
ag1559
ag3002
ag2303
ag740
ag371
ag2236
ag1377
ag1540
ag597
ag1862
ag1312
ag3533
ag2115
ag605
ag855
ag1617
ag270
ag209
ag2960
ag3833
ag3418
ag928
ag194
ag677
ag700
ag3193
ag3619
ag3760
ag2964
ag199
ag23
ag3917
ag1323
ag3843
ag3308
ag2572
ag3408
ag1190
ag3080
ag64
ag111
ag243
ag151
ag2382
ag84
ag281
ag2979
ag82
ag1337
ag2598
ag187
ag1453
ag1827
ag848
ag685
ag1856
ag290
ag1754
ag739
ag2696
ag3873
ag2514
ag3938
ag1506
ag2337
ag3356
ag1463
ag2671
ag2390
ag179
ag1750
ag1974
ag1128
ag2401
ag853
ag2221
ag1332
ag231
ag368
ag1028
ag3391
ag993
ag3028
ag601
ag351
ag1379
ag1446
ag206
ag2037
ag3202
ag3579
ag2893
ag3926
ag2472
ag79
ag2349
ag1499
ag2518
ag572
ag1308
ag463
ag1333
ag36
ag671
ag1260
ag2702
ag868
ag3491
ag1342
ag4095
ag881
ag1981
ag1172
ag1832
ag858
ag2597
ag1122
ag234
ag428
ag2248
ag2450
ag2367
ag4023
ag1400
ag378
ag1360
ag719
ag2770
ag1590
ag1990
ag1853
ag3057
ag460
ag2005
ag1517
ag31
ag1461
ag2479
ag2913
ag2409
ag2394
ag4081
ag2346
ag3963
ag1088
ag407
ag518
ag1433
ag3888
ag3974
ag782
ag1996
ag1539
ag794
ag3701
ag3136
ag3005
ag1240
ag1263
ag1174
ag3147
ag1826
ag1567
ag776
ag2368
ag1411
ag326
ag1786
ag2863
ag1491
ag3177
ag1291
ag467
ag183
ag2314
ag3530
ag2710
ag3488
ag2610
ag1598
ag1924
ag2827
ag3869
ag3549
ag2714
ag1216
ag2412
ag2376
ag446
ag594
ag3031
ag2481
ag1695
ag1472
ag1133
ag1714
ag2397
ag8
ag2500
ag1641
ag356
ag3083
ag799
ag1814
ag3243
ag3071
ag520
ag1139
ag955
ag398
ag613
ag1977
ag2566
ag3244
ag2066
ag2788
ag3886
ag2111
ag3235
ag2411
ag1753
ag2676
ag3589
ag3657
ag2426
ag2559
ag3995
ag3263
ag303
ag385
ag1047
ag1168
ag1254
ag431
ag1112
ag3539
ag4041
ag3285
ag3504
ag2152
ag1225
ag3375
ag2722
ag1300
ag1734
ag2079
ag2015
ag98
ag2069
ag3597
ag1752
ag3472
ag2751
ag765
ag2490
ag1484
ag2511
ag1841
ag3630
ag4085
ag854
ag1371
ag2527
ag973
ag2373
ag1776
ag1859
ag1586
ag3311
ag2971
ag2241
ag1781
ag3357
ag967
ag3435
ag1118
ag3599
ag3215
ag2950
ag2362
ag1206
ag3563
ag177
ag1399
ag2439
ag4043
ag2484
ag1741
ag1120
ag3903
ag2072
ag1444
ag487
ag168
ag4057
ag425
ag10
ag1794
ag1782
ag2859
ag3577
ag3654
ag550
ag2363
ag687
ag2493
ag560
ag2341
ag3458
ag647
ag2807
ag21
ag819
ag32
ag216
ag3082
ag3821
ag2217
ag953
ag2693
ag3354
ag2727
ag2996
ag102
ag2256
ag2870
ag2273
ag170
ag1470
ag14
ag3310
ag3659
ag1778
ag1109
ag1426
ag3106
ag2617
ag1597
ag4082
ag462
ag1341
ag3715
ag2433
ag3814
ag208
ag1583
ag461
ag763
ag2949
ag781
ag1203
ag1249
ag661
ag2894
ag3122
ag325
ag92
ag4019
ag1171
ag905
ag4013
ag758
ag2649
ag708
ag1787
ag2240
ag57
ag2057
ag3735
ag2582
ag1839
ag2661
ag2850
ag2811
ag201
ag2413
ag1829
ag2191
ag3400
ag2815
ag2898
ag2446
ag1816
ag3525
ag1403
ag13
ag328
ag1253
ag4070
ag951
ag2300
ag1149
ag3751
ag219
ag3636
ag2246
ag1947
ag971
ag490
ag3298
ag2473
ag1493
ag4004
ag305
ag1175
ag3252
ag3107
ag3516
ag267
ag3813
ag637
ag2405
ag3788
ag2209
ag1169
ag1035
ag1130
ag3172
ag1487
ag2897
ag1619
ag1601
ag4068
ag1054
ag1414
ag1415
ag2
ag3565
ag1935
ag2766
ag1802
ag3921
ag1967
ag3587
ag906
ag3180
ag3267
ag1423
ag1163
ag3866
ag663
ag1256
ag1652
ag468
ag1844
ag1614
ag180
ag346
ag909
ag2259
ag3019
ag2914
ag3802
ag3256
ag67
ag866
ag1671
ag127
ag2283
ag2201
ag3388
ag2313
ag2184
ag977
ag1471
ag941
ag3781
ag1733
ag1474
ag1669
ag625
ag2553
ag3162
ag3918
ag882
ag58
ag3931
ag451
ag1404
ag3113
ag3009
ag1870
ag2791
ag217
ag302
ag990
ag3014
ag3212
ag3439
ag3910
ag2255
ag1280
ag3984
ag2570
ag3544
ag2110
ag130
ag2571
ag372
ag3389
ag292
ag2783
ag417
ag2092
ag1113
ag285
ag2834
ag2352
ag817
ag2050
ag511
ag238
ag3342
ag2935
ag2290
ag3445
ag2545
ag694
ag2144
ag1644
ag3960
ag2655
ag50
ag825
ag2233
ag1336
ag3208
ag3996
ag2773
ag3431
ag1902
ag1281
ag2497
ag2145
ag3475
ag3582
ag2294
ag2782
ag103
ag3655
ag3640
ag3645
ag2415
ag3421
ag697
ag2267
ag1606
ag1015
ag4042
ag3578
ag145
ag2997
ag2001
ag262
ag2252
ag25
ag1103
ag704
ag537
ag1082
ag2333
ag2089
ag1834
ag2269
ag3922
ag2862
ag795
ag339
ag3134
ag3288
ag1951
ag2186
ag1350
ag695
ag1520
ag2517
ag1732
ag1789
ag2332
ag17
ag1845
ag1004
ag1429
ag2243
ag1507
ag862
ag239
ag3360
ag3912
ag3276
ag632
ag2508
ag3686
ag2879
ag3768
ag3432
ag1949
ag415
ag2973
ag1767
ag496
ag1299
ag1132
ag2157
ag2581
ag2113
ag1978
ag1527
ag2934
ag2902
ag423
ag1662
ag2227
ag1382
ag907
ag2535
ag2749
ag2723
ag756
ag3968
ag3195
ag3637
ag2841
ag2755
ag3877
ag3438
ag3556
ag2289
ag1923
ag4078
ag2470
ag2832
ag3702
ag3165
ag1298
ag635
ag2776
ag630
ag556
ag3633
ag1931
ag2586
ag1401
ag1631
ag1501
ag2724
ag1568
ag2758
ag620
ag3849
ag784
ag771
ag3511
ag3708
ag3744
ag2125
ag1137
ag1390
ag2128
ag2475
ag1531
ag3809
ag1838
ag47
ag1104
ag2095
ag3829
ag3631
ag534
ag717
ag949
ag2588
ag2540
ag2459
ag3024
ag3711
ag624
ag1748
ag2839
ag3131
ag1797
ag106
ag2718
ag314
ag529
ag3280
ag1481
ag1663
ag2345
ag1475
ag355
ag767
ag471
ag22
ag3859
ag1698
ag707
ag144
ag429
ag3911
ag2312
ag1863
ag581
ag1769
ag3200
ag2836
ag542
ag1345
ag3224
ag2020
ag4083
ag2250
ag4035
ag2086
ag1890
ag2501
ag1347
ag2253
ag1953
ag2462
ag650
ag1442
ag3512
ag3644
ag2449
ag1613
ag1842
ag1699
ag1999
ag244
ag3133
ag2544
ag1277
ag3345
ag485
ag1208
ag3226
ag3424
ag3216
ag2097
ag860
ag257
ag1681
ag4017
ag3928
ag2064
ag1261
ag2226
ag2065
ag3685
ag3490
ag992
ag3062
ag1696
ag2789
ag1718
ag3526
ag1368
ag2499
ag1040
ag2436
ag2974
ag1381
ag1763
ag1518
ag3442
ag1212
ag1187
ag4028
ag3845
ag2694
ag3387
ag810
ag2249
ag1066
ag2372
ag3206
ag3741
ag2519
ag847
ag2272
ag1013
ag510
ag957
ag2114
ag3049
ag162
ag1755
ag2731
ag3575
ag1743
ag420
ag2975
ag3652
ag2018
ag3551
ag2369
ag850
ag997
ag1468
ag912
ag1855
ag3155
ag3415
ag3514
ag1521
ag3169
ag2162
ag965
ag4022
ag2292
ag2669
ag3765
ag527
ag414
ag248
ag2320
ag1731
ag250
ag3245
ag2857
ag2138
ag3703
ag3538
ag3693
ag2603
ag1020
ag929
ag1024
ag2821
ag3550
ag340
ag3425
ag1092
ag1899
ag879
ag3333
ag2945
ag1288
ag1673
ag3977
ag3621
ag3905
ag1126
ag3073
ag2668
ag1737
ag600
ag546
ag2761
ag3691
ag588
ag3003
ag3318
ag887
ag2645
ag714
ag1466
ag2331
ag2443
ag1408
ag1365
ag2521
ag457
ag1352
ag152
ag1560
ag1207
ag3373
ag2624
ag3492
ag3220
ag2685
ag1807
ag1292
ag2729
ag2423
ag182
ag1900
ag2395
ag3121
ag287
ag1585
ag757
ag3076
ag3714
ag1022
ag1127
ag1938
ag2024
ag1161
ag1238
ag350
ag1186
ag1866
ag2284
ag1108
ag2286
ag2163
ag2229
ag3605
ag549
ag2195
ag1611
ag2181
ag3261
ag1492
ag49
ag448
ag1138
ag1007
ag815
ag3671
ag215
ag2732
ag1772
ag191
ag3359
ag69
ag2022
ag3433
ag2967
ag1229
ag3769
ag996
ag567
ag2119
ag3233
ag2126
ag494
ag2583
ag1672
ag2650
ag1615
ag2592
ag1566
ag1595
ag1727
ag631
ag835
ag158
ag1173
ag1467
ag48
ag2033
ag943
ag3039
ag1578
ag3817
ag4007
ag676
ag813
ag2410
ag1432
ag2955
ag1297
ag3055
ag4076
ag1008
ag555
ag1926
ag3951
ag753
ag3719
ag2074
ag3836
ag2031
ag16
ag497
ag2564
ag2204
ag678
ag2658
ag2430
ag2549
ag4
ag3757
ag2452
ag1682
ag2304
ag1668
ag4030
ag3933
ag66
ag521
ag3750
ag2541
ag3048
ag3884
ag1883
ag3521
ag3989
ag1011
ag1665
ag3126
ag1219
ag571
ag987
ag2040
ag3559
ag161
ag984
ag3065
ag2137
ag1242
ag1123
ag2847
ag2451
ag3384
ag1220
ag1725
ag2526
ag2155
ag1711
ag1596
ag1574
ag3946
ag2687
ag1304
ag1656
ag3732
ag2673
ag1418
ag3465
ag1577
ag2509
ag1502
ag1167
ag213
ag320
ag2174
ag3495
ag544
ag2885
ag2978
ag3026
ag570
ag3842
ag289
ag255
ag3846
ag2013
ag1325
ag230
ag2085
ag2278
ag2901
ag1392
ag4027
ag1006
ag421
ag832
ag3816
ag3805
ag1674
ag1563
ag3796
ag3237
ag1383
ag1508
ag3295
ag1018
ag1980
ag3398
ag2640
ag1413
ag507
ag2035
ag113
ag3865
ag1629
ag2927
ag3078
ag690
ag284
ag3316
ag742
ag1534
ag1868
ag1633
ag2279
ag3595
ag3317
ag513
ag19
ag3787
ag2631
ag3399
ag258
ag1882
ag576
ag1768
ag1271
ag222
ag2662
ag3166
ag1438
ag2029
ag682
ag607
ag840
ag1824
ag2135
ag2028
ag2407
ag2912
ag3197
ag665
ag2660
ag1928
ag4026
ag2625
ag3227
ag814
ag1243
ag3784
ag3892
ag1210
ag2306
ag3688
ag2820
ag911
ag769
ag212
ag2257
ag1792
ag1608
ag3074
ag453
ag3991
ag129
ag2643
ag2010
ag470
ag1651
ag1029
ag2968
ag3517
ag4005
ag1349
ag3704
ag3085
ag3440
ag3952
ag3614
ag2516
ag3099
ag774
ag3509
ag1940
ag3934
ag491
ag3047
ag316
ag3738
ag4038
ag1042
ag176
ag1431
ag2025
ag1538
ag15
ag2647
ag4067
ag3844
ag275
ag1929
ag2123
ag2187
ag3880
ag2180
ag2547
ag3327
ag1322
ag2848
ag3183
ag721
ag3871
ag236
ag2809
ag4065
ag1788
ag1116
ag3515
ag640
ag1969
ag3151
ag2679
ag1366
ag1129
ag2948
ag263
ag4073
ag745
ag1198
ag1717
ag979
ag105
ag561
ag1796
ag2769
ag3270
ag3754
ag3362
ag1959
ag2683
ag27
ag565
ag1303
ag2804
ag110
ag3507
ag439
ag4069
ag3470
ag1033
ag2019
ag2505
ag2686
ag2044
ag2980
ag3104
ag1428
ag1526
ag857
ag839
ag83
ag3980
ag2924
ag1435
ag1548
ag3958
ag2127
ag2555
ag616
ag1454
ag2403
ag826
ag3764
ag2760
ag1374
ag1558
ag2741
ag2124
ag3957
ag399
ag3367
ag1183
ag3480
ag508
ag3506
ag1192
ag1148
ag3124
ag1703
ag2383
ag1218
ag1295
ag3004
ag358
ag1327
ag3185
ag564
ag836
ag12
ag3178
ag775
ag3287
ag2417
ag3223
ag1941
ag3782
ag2396
ag1266
ag897
ag3801
ag1140
ag2830
ag3299
ag1700
ag1707
ag2374
ag2757
ag920
ag715
ag3494
ag1505
ag3174
ag1068
ag2130
ag2962
ag2744
ag442
ag122
ag3274
ag1552
ag3213
ag338
ag1564
ag54
ag2993
ag1726
ag1984
ag1510
ag3982
ag3434
ag2210
ag3171
ag2103
ag2055
ag394
ag1009
ag475
ag2730
ag2277
ag3891
ag3460
ag1646
ag2871
ag1422
ag2104
ag5
ag2211
ag3341
ag60
ag956
ag1421
ag2590
ag898
ag1443
ag1989
ag3726
ag1248
ag2023
ag1477
ag1757
ag2639
ag587
ag3713
ag1600
ag2418
ag3601
ag1160
ag2756
ag2762
ag3717
ag2992
ag1060
ag692
ag2892
ag142
ag4018
ag964
ag1180
ag1053
ag449
ag2261
ag3664
ag1494
ag1329
ag2469
ag2634
ag2513
ag1934
ag595
ag3641
ag2498
ag3975
ag2568
ag2425
ag2636
ag172
ag4091
ag706
ag797
ag264
ag1307
ag2343
ag1605
ag3924
ag2172
ag3053
ag1057
ag2557
ag404
ag3464
ag3459
ag1649
ag2280
ag3537
ag802
ag2282
ag1258
ag3709
ag811
ag2078
ag2198
ag63
ag2700
ag1194
ag1986
ag2218
ag427
ag2835
ag2043
ag4049
ag1875
ag2896
ag3529
ag539
ag3867
ag3638
ag1397
ag509
ag1790
ag2798
ag3454
ag651
ag3883
ag2142
ag1545
ag2956
ag1119
ag3489
ag523
ag2062
ag1077
ag1530
ag1524
ag3914
ag3020
ag2041
ag1124
ag87
ag3966
ag3086
ag3792
ag1065
ag2070
ag2189
ag1610
ag2414
ag2721
ag1105
ag2951
ag3983
ag2486
ag3689
ag2206
ag1234
ag1362
ag1083
ag1012
ag395
ag1019
ag1469
ag100
ag1536
ag1723
ag4052
ag3603
ag3000
ag1821
ag1603
ag2385
ag2805
ag728
ag2819
ag2884
ag3249
ag3127
ag1561
ag3069
ag3376
ag211
ag2795
ag622
ag1912
ag3600
ag2739
ag3079
ag146
ag3380
ag480
ag4064
ag175
ag359
ag985
ag1728
ag3848
ag1903
ag306
ag3611
ag3739
ag1419
ag1473
ag3217
ag1284
ag3064
ag3771
ag2845
ag2036
ag934
ag1357
ag628
ag655
ag893
ag3720
ag2153
ag2442
ag405
ag579
ag680
ag186
ag229
ag3272
ag1775
ag3444
ag760
ag506
ag274
ag2952
ag75
ag684
ag2164
ag1697
ag4020
ag865
ag1773
ag3143
ag577
ag1496
ag3326
ag937
ag3662
ag3988
ag1684
ag2032
ag1648
ag3656
ag3901
ag841
ag2621
ag845
ag1817
ag3344
ag3500
ag455
ag596
ag435
ag2709
ag1358
ag1030
ag3358
ag34
ag445
ag1170
ag2602
ag380
ag2406
ag383
ag2295
ag2605
ag3207
ag147
ag818
ag2816
ag2447
ag2872
ag137
ag178
ag204
ag2748
ag969
ag2216
ag514
ag493
ag2487
ag2908
ag495
ag902
ag2837
ag3271
ag2463
ag3868
ag2692
ag2321
ag1985
ag4094
ag1338
ag3668
ag1314
ag4000
ag2881
ag3161
ag2465
ag3204
ag1224
ag3115
ag1043
ag1074
ag3535
ag3170
ag3304
ag1405
ag4002
ag1436
ag430
ag293
ag1302
ag2546
ag741
ag1447
ag3493
ag1689
ag474
ag1961
ag3093
ag4024
ag2991
ag1241
ag1389
ag3893
ag1528
ag3653
ag2151
ag2251
ag3913
ag3677
ag851
ag3755
ag710
ag1356
ag1268
ag642
ag1645
ag1873
ag3190
ag603
ag3018
ag1353
ag2150
ag1587
ag1955
ag375
ag4063
ag1441
ag3281
ag3622
ag2340
ag2416
ag367
ag3309
ag1032
ag2344
ag1311
ag78
ag2389
ag2428
ag1282
ag748
ag762
ag2981
ag2677
ag3297
ag233
ag1201
ag3462
ag1048
ag1921
ag1195
ag2921
ag3348
ag1420
ag2869
ag2698
ag3015
ag360
ag2159
ag3576
ag214
ag155
ag3608
ag2296
ag1801
ag1209
ag994
ag933
ag645
ag2060
ag424
ag1504
ag3007
ag3678
ag104
ag875
ag2563
ag626
ag1055
ag3513
ag1485
ag726
ag2903
ag2323
ag1287
ag1072
ag245
ag541
ag2090
ag1998
ag1407
ag1554
ag4062
ag3628
ag1632
ag938
ag3173
ag366
ag337
ag1079
ag2707
ag3499
ag2154
ag870
ag2158
ag2266
ag2408
ag2854
ag1152
ag3419
ag3153
ag3254
ag2504
ag1836
ag2016
ag552
ag895
ag3035
ag2651
ag1385
ag3469
ag3767
ag3253
ag1176
ag2080
ag2342
ag2444
ag2824
ag1749
ag2682
ag3839
ag515
ag2917
ag2533
ag185
ag754
ag2274
ag260
ag156
ag3663
ag2657
ag3742
ag1706
ag3834
ag3694
ag2328
ag3642
ag1722
ag749
ag1136
ag501
ag1906
ag3191
ag1309
ag2477
ag3822
ag4077
ag1084
ag3164
ag115
ag1279
ag935
ag2799
ag1572
ag253
ag2664
ag2093
ag2717
ag1721
ag3369
ag1716
ag1914
ag618
ag2237
ag3875
ag838
ag2937
ag481
ag3259
ag948
ag1159
ag3602
ag3908
ag1393
ag2548
ag3944
ag2567
ag3222
ag563
ag1630
ag1764
ag3063
ag3157
ag2193
ag930
ag1482
ag2768
ag709
ag2071
ag382
ag3986
ag915
ag2098
ag3592
ag755
ag2708
ag2740
ag1375
ag3682
ag2793
ag193
ag2068
ag2437
ag3616
ag1107
ag1876
ag1100
ag3956
ag3851
ag2431
ag2503
ag3568
ag3060
ag3372
ag2947
ag3625
ag386
ag3068
ag3203
ag1073
ag3102
ag2595
ag3594
ag2167
ag3915
ag2107
ag2972
ag764
ag118
ag1843
ag2765
ag3135
ag773
ag46
ag641
ag317
ag2190
ag2965
ag444
ag2944
ag3159
ag443
ag117
ag1274
ag7
ag2464
ag4014
ag917
ag1380
ag3251
ag3075
ag1459
ag2861
ag3696
ag759
ag1000
ag1041
ag1911
ag1324
ag2004
ag2203
ag2604
ag649
ag1316
ag2715
ag1290
ag3692
ag189
ag2355
ag279
ag20
ag3925
ag3145
ag1779
ag1233
ag1141
ag1165
ag51
ag3420
ag606
ag295
ag1388
ag2814
ag2088
ag502
ag3401
ag434
ag35
ag3321
ag1800
ag658
ag2918
ag432
ag1871
ag538
ag1001
ag1452
ag735
ag1080
ag551
ag2489
ag2600
ag2238
ag831
ag3857
ag1296
ag2404
ag1960
ag1892
ag4033
ag94
ag1738
ag121
ag3536
ag3163
ag1879
ag1500
ag479
ag2245
ag3947
ag319
ag3441
ag986
ag1184
ag3920
ag3723
ag3607
ag3698
ag3361
ag2556
ag1331
ag636
ag713
ag4039
ag3766
ag3052
ag4075
ag2666
ag3011
ag2958
ag1751
ag693
ag614
ag1675
ag2482
ag3381
ag3405
ag2796
ag733
ag1355
ag3091
ag2466
ag3152
ag2322
ag164
ag1762
ag3301
ag2364
ag2963
ag3545
ag947
ag3971
ag1661
ag3034
ag3414
ag3132
ag2778
ag139
ag1361
ag1704
ag2699
ag1920
ag2002
ag2648
ag2495
ag2330
ag1509
ag1950
ag3874
ag3449
ag2635
ag768
ag1359
ag2554
ag392
ag1197
ag2232
ag1214
ag3881
ag3793
ag2712
ag3620
ag2990
ag2846
ag578
ag3016
ag401
ag2099
ag1642
ag1017
ag2476
ag1877
ag1278
ag796
ag160
ag2520
ag1076
ag3347
ag72
ag2096
ag3448
ag1037
ag952
ag2953
ag184
ag1993
ag3407
ag3623
ag666
ag3377
ag4088
ag1894
ag2764
ag2424
ag373
ag464
ag2046
ag3864
ag2626
ag3264
ag2619
ag3906
ag558
ag3051
ag2357
ag3626
ag1111
ag3112
ag3613
ag4016
ag1157
ag2713
ag1956
ag2725
ag438
ag2474
ag3225
ag1939
ag2058
ag1272
ag2561
ag2684
ag196
ag1625
ag3979
ag2112
ag2529
ag2988
ag2985
ag617
ag2007
ag1301
ag2271
ag3665
ag1039
ag1943
ag1685
ag1710
ag3557
ag2393
ag2205
ag2225
ag3885
ag2378
ag1320
ag1269
ag2781
ag1217
ag3338
ag1888
ag746
ag2075
ag599
ag2623
ag3590
ag1244
ag2388
ag3092
ag389
ag3609
ag352
ag2703
ag3828
ag150
ag1657
ag2653
ag3543
ag9
ag842
ag936
ag2348
ag3681
ag660
ag922
ag1078
ag2542
ag2735
ag3724
ag3231
ag2224
ag1402
ag1460
ag659
ag863
ag1542
ag1637
ag2704
ag1114
ag1075
ag1954
ag1456
ag135
ag916
ag2146
ag686
ag3262
ag1286
ag3965
ag437
ag1498
ag1765
ag4058
ag3524
ag3474
ag3847
ag324
ag1549
ag675
ag2969
ag2719
ag2890
ag3666
ag1511
ag3777
ag269
ag3673
ag3872
ag2904
ag791
ag2976
ag3329
ag3604
ag3518
ag2790
ag2852
ag286
ag3679
ag3827
ag2365
ag1247
ag3452
ag3941
ag2432
ag1679
ag3189
ag3978
ag4059
ag452
ag3774
ag1612
ag3428
ag2759
ag1145
ag1917
ag2049
ag837
ag1640
ag1412
ag2478
ag3775
ag2829
ag1602
ag1579
ag313
ag3923
ag3429
ag1680
ag1569
ag3972
ag3336
ag982
ag535
ag1670
ag202
ag872
ag2347
ag899
ag1003
ag1864
ag3386
ag2530
ag2866
ag2175
ag648
ag2441
ag1162
ag3487
ag3780
ag3661
ag3954
ag477
ag492
ag2641
ag3994
ag2196
ag1097
ag3293
ag3294
ag2502
ag1865
ag4040
ag2957
ag3250
ag364
ag3807
ag361
ag2026
ag2199
ag73
ag107
ag2301
ag387
ag1179
ag2591
ag3410
ag128
ag1458
ag1694
ag3734
ag224
ag1550
ag376
ag2939
ag1848
ag333
ag2319
ag4003
ag1604
ag1513
ag629
ag225
ag3241
ag975
ag998
ag2933
ag86
ag3319
ag3799
ag1766
ag2067
ag752
ag1155
ag2877
ag3374
ag830
ag4089
ag3305
ag2573
ag3108
ag133
ag2574
ag1378
ag2030
ag580
ag2630
ag3457
ag2083
ag3759
ag924
ag1235
ag2801
ag2742
ag1819
ag3969
ag2646
ag3895
ag3017
ag3797
ag1202
ag2173
ag1809
ag4008
ag280
ag2051
ag1825
ag3054
ag2360
ag2800
ag2109
ag1599
ag169
ag2021
ag1857
ag3314
ag138
ag2359
ag1785
ag4051
ag207
ag1983
ag1363
ag939
ag944
ag1846
ag3820
ag1143
ag867
ag2607
ag2678
ag3109
ag2743
ag3114
ag1930
ag88
ag3282
ag1134
ag1529
ag3823
ag3239
ag3690
ag3927
ag2270
ag2652
ag3214
ag3949
ag221
ag1384
ag3758
ag1885
ag2941
ag3718
ag573
ag4036
ag1909
ag3138
ag42
ag2786
ag3001
ag3320
ag574
ag486
ag2222
ag1627
ag2538
ag3447
ag3571
ag3503
ag1199
ag2787
ag3339
ag2578
ag347
ag3496
ag1099
ag210
ag458
ag2994
ag473
ag2706
ag3555
ag228
ag3695
ag3137
ag2942
ag669
ag65
ag3959
ag2909
ag2039
ag3340
ag664
ag2906
ag218
ag2170
ag2440
ag1580
ag1908
ag369
ag3096
ag1820
ag1948
ag2609
ag2828
ag2254
ag1858
ag2356
ag689
ag2264
ag56
ag52
ag1273
ag1713
ag1215
ag2797
ag3116
ag1067
ag2133
ag3882
ag157
ag1221
ag1294
ag2084
ag2537
ag3904
ag891
ag3413
ag1335
ag1777
ag2435
ag1840
ag3919
ag2826
ag3962
ag3634
ag1226
ag643
ag2454
ag3519
ag3806
ag1177
ag849
ag1386
ag3985
ag315
ag119
ag785
ag2539
ag3070
ag3825
ag1425
ag3936
ag4044
ag2593
ag2923
ag3403
ag397
ag1736
ag1693
ag1658
ag3898
ag3353
ag3218
ag1570
ag1562
ag2920
ag2936
ag419
ag3486
ag871
ag336
ag3627
ag834
ag2562
ag1607
ag2551
ag3501
ag2611
ag3350
ag3643
ag3572
ag3378
ag272
ag2461
ag44
ag1729
ag1455
ag3731
ag93
ag3396
ag3747
ag2003
ag2910
ag519
ag112
ag2276
ag2633
ag2231
ag2308
ag1872
ag2637
ag1771
ag4050
ag3040
ag1310
ag1239
ag379
ag869
ag1720
ag301
ag3870
ag2381
ag1457
ag1901
ag1532
ag963
ag1887
ag2922
ag3437
ag343
ag923
ag3916
ag3484
ag268
ag3148
ag3385
ag2208
ag3522
ag3036
ag654
ag1257
ag2855
ag718
ag2000
ag1735
ag3763
ag1370
ag2496
ag2842
ag472
ag1594
ag3077
ag1142
ag3278
ag904
ag2810
ag991
ag2989
ag2701
ag482
ag940
ag3406
ag3961
ag2746
ag3453
ag3861
ag1232
ag1740
ag3832
ag1010
ag2860
ag2943
ag3303
ag927
ag1543
ag1589
ag3012
ag2818
ag679
ag3639
ag3497
ag1584
ag1222
ag770
ag2387
ag591
ag1958
ag1095
ag2831
ag3368
ag945
ag592
ag828
ag276
ag308
ag1666
ag2515
ag3824
ag3554
ag2052
ag3087
ag4055
ag890
ag3710
ag3810
ag747
ag1643
ag1758
ag2316
ag3417
ag3346
ag2141
ag2589
ag3260
ag633
ag3277
ag3612
ag3812
ag1071
ag391
ag2728
ag3948
ag2371
ag3219
ag3395
ag1730
ag2118
ag638
ag701
ag2705
ag1760
ag1081
ag2351
ag41
ag488
ag2358
ag1831
ag1264
ag1806
ag3795
ag1464
ag3150
ag524
ag1058
ag683
ag1036
ag318
ag1979
ag3588
ag1147
ag3296
ag62
ag1823
ag2116
ag2689
ag1275
ag3286
ag1907
ag2230
ag3468
ag1085
ag1687
ag2176
ag353
ag2034
ag1204
ag91
ag2293
ag1793
ag3371
ag918
ag4037
ag884
ag2596
ag2733
ag532
ag4060
ag1351
ag1512
ag3042
ag2458
ag1880
ag1439
ag3061
ag61
ag3041
ag1315
ag1064
ag2386
ag3156
ag2874
ag2038
ag3967
ag1340
ag1089
ag3858
ag1915
ag2681
ag3753
ag1270
ag2534
ag1893
ag3566
ag3596
ag2311
ag220
ag2391
ag2576
ag3144
ag2889
ag3942
ag3032
ag2840
ag3527
ag3184
ag3707
ag332
ag2880
ag1056
ag4011
ag1354
ag3269
ag2844
ag1151
ag1761
ag959
ag2888
ag3033
ag277
ag335
ag3365
ag4047
ag334
ag1690
ag2400
ag1430
ag3791
ag3935
ag3940
ag667
ag1945
ag2219
ag2982
ag3546
ag803
ag656
ag2614
ag163
ag2148
ag2780
ag3591
ag3330
ag3909
ag3585
ag1101
ag1828
ag3856
ag512
ag1593
ag1480
ag108
ag1616
ag329
ag1745
ag2014
ag1462
ag1547
ag3973
ag2427
ag3443
ag456
ag3
ag2919
ag3182
ag3721
ag1150
ag3878
ag968
ag586
ag24
ag3027
ag545
ag3141
ag3761
ag3485
ag584
ag859
ag97
ag2134
ag1154
ag2087
ag901
ag1889
ag3541
ag266
ag2580
ag39
ag804
ag2143
ag2736
ag3411
ag4066
ag1328
ag2207
ag888
ag1678
ag2608
ag3730
ag1897
ag3364
ag2287
ag246
ag469
ag536
ag2380
ag153
ag1591
ag1966
ag2524
ag1964
ag548
ag3306
ag925
ag910
ag816
ag1913
ag2453
ag878
ag1708
ag1571
ag805
ag3463
ag3632
ag3097
ag3976
ag966
ag2670
ag1213
ag259
ag517
ag2262
ag2265
ag1852
ag2552
ag4031
ag3939
ag962
ag2129
ag3088
ag2628
ag1946
ag2899
ag3427
ag341
ag2512
ag3179
ag3649
ag1448
ag2688
ag1919
ag3328
ag2305
ag3561
ag3289
ag3125
ag2905
ag2667
ag171
ag974
ag2161
ag504
ag1847
ag1503
ag2438
ag1387
ag2785
ag1391
ag3705
ag3745
ag1369
ag4072
ag2285
ag772
ag348
ag3749
ag2720
ag2379
ag646
ag3390
ag242
ag466
ag1810
ag1581
ag1898
ag59
ag921
ag2214
ag569
ag609
ag2420
ag2642
ag3998
ag932
ag1189
ag273
ag131
ag1557
ag2747
ag1850
ag3624
ag1582
ag3676
ag1635
ag3528
ag3606
ag304
ag125
ag716
ag3412
ag2875
ag1620
ag3450
ag1251
ag1798
ag1654
ag134
ag623
ag3100
ag3246
ag1102
ag2737
ag2445
ag2354
ag400
ag823
ag2468
ag3697
ag3196
ag3510
ag357
ag1063
ag4080
ag2200
ag2560
ag3815
ag3743
ag3826
ag3038
ag2136
ag2139
ag2179
ag1982
ag2235
ag3540
ag4046
ag1166
ag406
ag2745
ag2711
ag3650
ag3221
ag1904
ag3680
ag192
ag1742
ag174
ag1490
ag812
ag3993
ag562
ag2197
ag3786
ag173
ag3473
ag2291
ag3598
ag18
ag1910
ag1861
ag2102
ag322
ag820
ag557
ag2421
ag412
ag1932
ag808
ag3770
ag3773
ag4074
ag402
ag2802
ag3044
ag2506
ag1319
ag2858
ag1541
ag530
ag1094
ag198
ag321
ag1922
ag344
ag3997
ag1988
ag354
ag621
ag4054
ag3210
ag2350
ag1916
ag3430
ag2471
ag2429
ag3030
ag1874
ag1488
ag3181
ag3583
ag3337
ag2803
ag1376
ag2550
ag3029
ag1115
ag2132
ag232
ag2806
ag3850
ag2864
ag1803
ag433
ag1135
ag410
ag3307
ag2928
ag766
ag608
ag3175
ag1440
ag2983
ag2171
ag913
ag1677
ag1262
ag498
ag778
ag26
ag688
ag3037
ag3366
ag2247
ag2073
ag2326
ag3119
ag1784
ag327
ag388
ag2234
ag1087
ag1021
ag3629
ag1223
ag1822
ag2738
ag843
ag3476
ag2178
ag3772
ag2168
ag2565
ag3043
ag70
ag3397
ag844
ag2213
ag3853
ag3008
ag1683
ag3021
ag554
ag3363
ag4097
ag531
ag789
ag1609
ag2457
ag3552
ag1049
ag2672
ag1283
ag1576
ag2402
ag1062
ag3683
ag1178
ag2297
ag166
ag2627
ag3778
ag124
ag505
ag3146
ag627
ag3776
ag256
ag3322
ag3478
ag1070
ag503
ag2281
ag1881
ag1905
ag3229
ag1553
ag2160
ag370
ag691
ag2763
ag3800
ag3242
ag3176
ag167
ag459
ag2317
ag553
ag2353
ag181
ag96
ag188
ag2056
ag788
ag1483
ag3187
ag205
ag4010
ag28
ag1659
ag2048
ag2531
ag3722
ag2674
ag1851
ag1276
ag4084
ag483
ag4093
ag1918
ag3762
ag1804
ag1476
ag1289
ag2017
ag1110
ag3066
ag3725
ag1715
ag1783
ag2053
ag1849
ag1005
ag1515
ag3095
ag2690
ag2638
ag3089
ag582
ag1744
ag1059
ag1724
ag2165
ag2220
ag2601
ag2522
ag2675
ag2629
ag1193
ag3803
ag703
ag3523
ag3728
ag800
ag2392
ag1449
ag384
ag1091
ag3466
ag2849
ag720
ag3740
ag3502
ag3804
ag2166
ag2377
ag2878
ag3335
ag4048
ag886
ag3154
ag3854
ag4087
ag2275
ag2930
ag3315
ag197
ag3945
ag447
ag2100
ag1250
ag2792
ag516
ag2613
ag2587
ag95
ag3383
ag873
ag2422
ag2813
ag2599
ag727
ag3149
ag120
ag1106
ag2970
ag3712
ag919
ag892
ag743
ag37
ag1660
ag1886
ag2577
ag40
ag3570
ag1667
ag705
ag3067
ag2448
ag2772
ag829
ag711
ag900
ag2260
ag2886
ag2726
ag3247
ag786
ag2183
ag4012
ag409
ag1191
ag4079
ag141
ag478
ag1096
ag989
ag2091
ag3402
ag235
ag4090
ag1326
ag2691
ag3045
ag249
ag1445
ag908
ag2491
ag3580
ag2329
ag154
ag2932
ag4015
ag972
ag1756
ag3907
ag1692
ag3058
ag3748
ag1522
ag3706
ag2868
ag1795
ag3852
ag3670
ag1427
ag1479
ag1709
ag2460
ag2131
ag1465
ag1987
ag2891
ag3273
ag2009
ag2239
ag4086
ag3667
ag2543
ag3120
ag732
ag833
ag1086
ag2008
ag2966
ag3201
ag877
ag790
ag3409
ag2327
ag1069
ag3482
ag2825
ag85
ag2325
ag1285
ag331
ag2907
ag3199
ag1575
ag611
ag1815
ag3423
ag806
ag3209
ag3332
ag970
ag4029
ag1544
ag2594
ag2929
ag526
ag3059
ag2045
ag4096
ag2999
ag2998
ag604
ag2185
ag737
ag440
ag2925
ag3324
ag723
ag132
ag559
ag2606
ag2122
ag38
ag1031
ag2480
ag3830
ag3236
ag2510
ag2061
ag1205
ag413
ag1565
ag3672
ag1925
ag418
ag1833
ag698
ag3232
ag2536
ag3855
ag1002
ag2299
ag1410
ag3300
ag3950
ag3117
ag780
ag1639
ag3268
ag1121
ag2753
ag792
ag2876
ag2622
ag1962
ag1396
ag699
ag846
ag1025
ag1478
ag2940
ag1691
ag2011
ag3192
ag3987
ag543
ag1156
ag1367
ag3142
ag45
ag1153
ag298
ag1514
ag3084
ag1044
ag1245
ag2366
ag2851
ag148
ag3840
ag602
ag3266
ag3618
ag954
ag3211
ag1398
ag2615
ag619
ag436
ag668
ag3198
ag960
ag2177
ag2663
ag2620
ag3477
ag465
ag876
ag1537
ag1746
ag1026
ag3970
ag3312
ag80
ag1313
ag1556
ag2263
ag381
ag2223
ag3205
ag1416
ag4045
ag3990
ag4053
ag68
ag1034
ag2384
ag3584
ag1523
ag1330
ag1364
ag568
ag3140
ag575
ag1813
ag3574
ag2882
ag149
ag309
ag3879
ag3006
ag3168
ag1450
ag3789
ag3899
ag2575
ag961
ag2865
ag2822
ag644
ag126
ag1255
ag3471
ag3479
ag2335
ag730
ag1231
ag3323
ag454
ag53
ag3351
ag3558
ag2488
ag3635
ag2995
ag2931
ag1185
ag942
ag2399
ag2823
ag3860
ag1818
ag3279
ag3811
ag101
ag123
ag265
ag1497
ag241
ag1555
ag2302
ag674
ag1942
ag1891
ag2398
ag2794
ag3123
ag2108
ag1653
ag2774
ag1196
ag1936
ag3542
ag3783
ag2042
ag2771
ag3660
ag2867
ag1991
ag2120
ag1686
ag2523
ag3964
ag3593
ag3186
ag3531
ag3675
ag408
ag1023
ag2911
ag3110
ag76
ag751
ag3819
ag2361
ag3404
ag725
ag3392
ag4034
ag589
ag1975
ag1995
ag2752
ag2492
ag349
ag3128
ag3481
ag1317
ag1869
ag3334
ag226
ag2808
ag3508
ag2298
ag738
ag11
ag3426
ag3831
ag299
ag856
ag1334
ag1051
ag1759
ag2434
ag252
ag2525
ag3930
ag342
ag2654
ag396
ag793
ag980
ag981
ag3647
ag1486
ag1878
ag3098
ag2579
ag1628
ag2833
ag1965
ag4025
ag307
ag1588
ag3955
ag3240
ag1267
ag2456
ag585
ag1712
ag74
ag30
ag2775
ag894
ag3953
ag2307
ag282
ag983
ag426
ag3013
ag3290
ag3160
ag3897
ag2455
ag1061
ag3349
ag2585
ag2843
ag1791
ag1805
ag3992
ag1417
ag3056
ag278
ag3651
ag976
ag528
ag1867
ag3562
ag3818
ag1038
ag2188
ag3648
ag3090
ag2228
ag3081
ag2076
ag3520
ag3130
ag2817
ag3808
ag1533
ag1647
ag1211
ag2887
ag2838
ag3343
ag223
ag227
ag696
ag4061
ag140
ag1406
ag2926
ag1227
ag489
ag4092
ag783
ag1293
ag3022
ag525
ag1125
ag1705
ag1774
ag2784
ag3838
ag1265
ag2558
ag2777
ag1546
ag652
ag702
ag3451
ag3932
ag1200
ag1835
ag1146
ag1808
ag33
ag1236
ag1884
ag29
ag3467
ag323
ag1811
ag2612
ag3553
ag712
ag3188
ag294
ag1434
ag1976
ag1636
ag403
ag885
ag374
ag2339
ag2494
ag1306
ag1424
ag1573
ag2059
ag1144
ag2938
ag821
ag300
ag3379
ag3046
ag1027
ag533
ag681
ag3248
ag3684
ag3283
ag958
ag1237
ag807
ag2012
ag3394
ag2665
ag896
ag114
ag2202
ag731
ag311
ag1228
ag77
ag583
ag2856
ag2961
ag3737
ag3733
ag136
ag3234
ag3937
ag1830
ag3382
ag2063
ag1409
ag1093
ag2117
ag2483
ag2310
ag3548
ag2242
ag1994
ag2680
ag1050
ag1634
ag3862
ag1188
ag345
ag2375
ag2812
ag634
ag1592
ag1343
ag3505
ag1626
ag3835
ag3615
ag3617
ag3752
ag484
ag1780
ag1944
ag1346
ag3687
ag3674
ag2618
ag670
ag1739
ag2977
ag43
ag2244
ag2192
ag3547
ag261
ag615
ag1437
ag3455
ag3981
ag1957
ag3794
ag2212
ag1321
ag1014
ag2006
ag2106
ag2336
ag3446
ag3105
ag3257
ag593
ag390
ag1972
ag1339
ag3416
ag3798
ag1799
ag1516
ag2984
ag2467
ag662
ag1837
ag566
ag3167
ag3887
ag240
ag450
ag1664
ag2754
ag200
ag822
ag889
ag3727
ag254
ag3894
ag3355
ag522
ag3023
ag2695
ag1181
ag3876
ag1676
ag3586
ag247
ag2895
ag1896
ag3111
ag3292
ag995
ag653
ag3863
ag736
ag914
ag1016
ag3436
ag3581
ag931
ag1158
ag2105
ag3313
ag3790
ag363
ag978
ag500
ag3118
ag81
ag3564
ag3756
ag1045
ag2532
ag3736
ag251
ag880
ag99
ag109
ag3461
ag2258
ag1230
ag2987
ag3050
ag777
ag2370
ag441
ag411
ag165
ag3238
ag2054
ag71
ag1164
ag3352
ag2644
ag2315
ag3573
ag2081
ag2121
ag2156
ag2716
ag4032
ag2094
ag2873
ag1970
ag1046
ag499
ag3534
ag2140
ag883
ag2215
ag377
ag3370
ag598
ag903
ag657
ag190
ag744
ag3331
ag3890
ag2900
ag1624
ag4001
ag610
ag3729
ag1489
ag1854
ag2268
ag2324
ag3129
ag2147
ag55
ag590
ag827
ag3265
ag393
ag2507
ag3669
ag2194
ag2697
ag2750
ag3498
ag3393
ag1719
ag3139
ag3929
ag271
ag639
ag2734
ag1971
ag2883
ag1638
ag1927
ag3194
ag750
ag3228
ag1895
ag540
ag2309
ag801
ag1621
ag1348
ag3072
ag291
ag237
ag3646
ag926
ag3699
ag3700
ag2082
ag1182
ag2569
ag864
ag1090
ag1747
ag2954
ag3158
ag3900
ag416
ag1131
ag1701
ag3291
ag365
ag3999
ag1622
ag1395
ag3610
ag6
ag988
ag4071
ag3103
ag3325
ag3567
ag861
ag1252
ag2853
ag2528
ag824
ag1860
ag761
ag3896
ag3255
ag2182
ag283
ag2986
ag3230
ag1992
aa.